; ModuleID = 'asap_solver.cpp'
target datalayout = "e-m:e-i64:64-f80:128-n8:16:32:64-S128"
target triple = "x86_64-pc-linux-gnu"

%"class.std::ios_base::Init" = type { i8 }
%"class.std::basic_ostream" = type { i32 (...)**, %"class.std::basic_ios" }
%"class.std::basic_ios" = type { %"class.std::ios_base", %"class.std::basic_ostream"*, i8, i8, %"class.std::basic_streambuf"*, %"class.std::ctype"*, %"class.std::num_put"*, %"class.std::num_get"* }
%"class.std::ios_base" = type { i32 (...)**, i64, i64, i32, i32, i32, %"struct.std::ios_base::_Callback_list"*, %"struct.std::ios_base::_Words", [8 x %"struct.std::ios_base::_Words"], i32, %"struct.std::ios_base::_Words"*, %"class.std::locale" }
%"struct.std::ios_base::_Callback_list" = type { %"struct.std::ios_base::_Callback_list"*, void (i32, %"class.std::ios_base"*, i32)*, i32, i32 }
%"struct.std::ios_base::_Words" = type { i8*, i64 }
%"class.std::locale" = type { %"class.std::locale::_Impl"* }
%"class.std::locale::_Impl" = type { i32, %"class.std::locale::facet"**, i64, %"class.std::locale::facet"**, i8** }
%"class.std::locale::facet" = type <{ i32 (...)**, i32, [4 x i8] }>
%"class.std::basic_streambuf" = type { i32 (...)**, i8*, i8*, i8*, i8*, i8*, i8*, %"class.std::locale" }
%"class.std::ctype" = type <{ %"class.std::locale::facet.base", [4 x i8], %struct.__locale_struct*, i8, [7 x i8], i32*, i32*, i16*, i8, [256 x i8], [256 x i8], i8, [6 x i8] }>
%"class.std::locale::facet.base" = type <{ i32 (...)**, i32 }>
%struct.__locale_struct = type { [13 x %struct.__locale_data*], i16*, i32*, i32*, [13 x i8*] }
%struct.__locale_data = type opaque
%"class.std::num_put" = type { %"class.std::locale::facet.base", [4 x i8] }
%"class.std::num_get" = type { %"class.std::locale::facet.base", [4 x i8] }
%"struct.std::nothrow_t" = type { i8 }
%class.CSolver = type { %class.CDatabase, i64, i32, %"class.std::vector.13", %"class.std::queue.20", %struct.CSolverParameters, %"class.std::vector.27", i32, [2 x %"class.std::vector.18"], %"class.std::vector.34", i32, %"class.std::vector.18", %"class.std::vector.18", %"class.std::vector.40"*, i32, %struct.CSolverStats }
%class.CDatabase = type { %struct.CDatabaseStats, %class.CLitPoolElement*, %class.CLitPoolElement*, %class.CLitPoolElement*, %"class.std::vector", %"class.std::vector.5", %"class.std::queue", i32, i32 }
%struct.CDatabaseStats = type { i32, i8, i32, i32, i32, i32, i32, i32 }
%class.CLitPoolElement = type { i32 }
%"class.std::vector" = type { %"struct.std::_Vector_base" }
%"struct.std::_Vector_base" = type { %"struct.std::_Vector_base<CVariable, std::allocator<CVariable> >::_Vector_impl" }
%"struct.std::_Vector_base<CVariable, std::allocator<CVariable> >::_Vector_impl" = type { %class.CVariable*, %class.CVariable*, %class.CVariable* }
%class.CVariable = type <{ i32, i16, i16, [2 x %"class.std::vector.0"], [2 x i32], [2 x i32], i32, [4 x i8] }>
%"class.std::vector.0" = type { %"struct.std::_Vector_base.1" }
%"struct.std::_Vector_base.1" = type { %"struct.std::_Vector_base<CLitPoolElement *, std::allocator<CLitPoolElement *> >::_Vector_impl" }
%"struct.std::_Vector_base<CLitPoolElement *, std::allocator<CLitPoolElement *> >::_Vector_impl" = type { %class.CLitPoolElement**, %class.CLitPoolElement**, %class.CLitPoolElement** }
%"class.std::vector.5" = type { %"struct.std::_Vector_base.6" }
%"struct.std::_Vector_base.6" = type { %"struct.std::_Vector_base<CClause, std::allocator<CClause> >::_Vector_impl" }
%"struct.std::_Vector_base<CClause, std::allocator<CClause> >::_Vector_impl" = type { %class.CClause*, %class.CClause*, %class.CClause* }
%class.CClause = type <{ %class.CLitPoolElement*, i32, i8, [3 x i8] }>
%"class.std::queue" = type { %"class.std::deque" }
%"class.std::deque" = type { %"class.std::_Deque_base" }
%"class.std::_Deque_base" = type { %"struct.std::_Deque_base<int, std::allocator<int> >::_Deque_impl" }
%"struct.std::_Deque_base<int, std::allocator<int> >::_Deque_impl" = type { i32**, i64, %"struct.std::_Deque_iterator", %"struct.std::_Deque_iterator" }
%"struct.std::_Deque_iterator" = type { i32*, i32*, i32*, i32** }
%"class.std::vector.13" = type { %"struct.std::_Vector_base.14" }
%"struct.std::_Vector_base.14" = type { %"struct.std::_Vector_base<std::vector<int, std::allocator<int> > *, std::allocator<std::vector<int, std::allocator<int> > *> >::_Vector_impl" }
%"struct.std::_Vector_base<std::vector<int, std::allocator<int> > *, std::allocator<std::vector<int, std::allocator<int> > *> >::_Vector_impl" = type { %"class.std::vector.18"**, %"class.std::vector.18"**, %"class.std::vector.18"** }
%"class.std::queue.20" = type { %"class.std::deque.21" }
%"class.std::deque.21" = type { %"class.std::_Deque_base.22" }
%"class.std::_Deque_base.22" = type { %"struct.std::_Deque_base<std::pair<int, int>, std::allocator<std::pair<int, int> > >::_Deque_impl" }
%"struct.std::_Deque_base<std::pair<int, int>, std::allocator<std::pair<int, int> > >::_Deque_impl" = type { %"struct.std::pair"**, i64, %"struct.std::_Deque_iterator.26", %"struct.std::_Deque_iterator.26" }
%"struct.std::pair" = type { i32, i32 }
%"struct.std::_Deque_iterator.26" = type { %"struct.std::pair"*, %"struct.std::pair"*, %"struct.std::pair"*, %"struct.std::pair"** }
%struct.CSolverParameters = type { float, i32, i32, i8, i32, i32, i32, i32, i32, i32, i32, i8, float, float, float, i32, i32, i32, i32, i32, i8, i32, i8, i8, i8, %class.AssignmentStack*, %class.Assignment*, %struct.Assignments*, i32, i32, i32, i32, i32, i32, i32, i8, i8, %class.Timers* }
%class.AssignmentStack = type <{ i32*, i32, i8, [3 x i8] }>
%class.Assignment = type { i32*, i8, i8, i32 }
%struct.Assignments = type { i32*, i32* }
%class.Timers = type { i32, i64*, i64, i64 }
%"class.std::vector.27" = type { %"struct.std::_Vector_base.28" }
%"struct.std::_Vector_base.28" = type { %"struct.std::_Vector_base<std::pair<int, std::pair<void (*)(void *), int> >, std::allocator<std::pair<int, std::pair<void (*)(void *), int> > > >::_Vector_impl" }
%"struct.std::_Vector_base<std::pair<int, std::pair<void (*)(void *), int> >, std::allocator<std::pair<int, std::pair<void (*)(void *), int> > > >::_Vector_impl" = type { %"struct.std::pair.32"*, %"struct.std::pair.32"*, %"struct.std::pair.32"* }
%"struct.std::pair.32" = type { i32, [4 x i8], %"struct.std::pair.33" }
%"struct.std::pair.33" = type <{ void (i8*)*, i32, [4 x i8] }>
%"class.std::vector.34" = type { %"struct.std::_Vector_base.35" }
%"struct.std::_Vector_base.35" = type { %"struct.std::_Vector_base<std::pair<CVariable *, int>, std::allocator<std::pair<CVariable *, int> > >::_Vector_impl" }
%"struct.std::_Vector_base<std::pair<CVariable *, int>, std::allocator<std::pair<CVariable *, int> > >::_Vector_impl" = type { %"struct.std::pair.39"*, %"struct.std::pair.39"*, %"struct.std::pair.39"* }
%"struct.std::pair.39" = type <{ %class.CVariable*, i32, [4 x i8] }>
%"class.std::vector.18" = type { %"struct.std::_Vector_base.19" }
%"struct.std::_Vector_base.19" = type { %"struct.std::_Vector_base<int, std::allocator<int> >::_Vector_impl" }
%"struct.std::_Vector_base<int, std::allocator<int> >::_Vector_impl" = type { i32*, i32*, i32* }
%"class.std::vector.40" = type opaque
%struct.CSolverStats = type { i8, i32, i8, i64, i64, i64, i64, i64, i64, i32, i32, i32, i32, i32 }
%"class.std::allocator.23" = type { i8 }
%"class.std::allocator.10" = type { i8 }
%"class.std::allocator.36" = type { i8 }
%"class.std::allocator.29" = type { i8 }
%"class.std::allocator.15" = type { i8 }
%"class.__gnu_cxx::__normal_iterator.42" = type { %class.CClause* }
%"class.__gnu_cxx::__normal_iterator.43" = type { %class.CVariable* }
%"class.__gnu_cxx::__normal_iterator" = type { %class.CLitPoolElement** }
%struct.rusage = type { %struct.timeval, %struct.timeval, %union.anon, %union.anon.48, %union.anon.49, %union.anon.50, %union.anon.51, %union.anon.52, %union.anon.53, %union.anon.54, %union.anon.55, %union.anon.56, %union.anon.57, %union.anon.58, %union.anon.59, %union.anon.60 }
%struct.timeval = type { i64, i64 }
%union.anon = type { i64 }
%union.anon.48 = type { i64 }
%union.anon.49 = type { i64 }
%union.anon.50 = type { i64 }
%union.anon.51 = type { i64 }
%union.anon.52 = type { i64 }
%union.anon.53 = type { i64 }
%union.anon.54 = type { i64 }
%union.anon.55 = type { i64 }
%union.anon.56 = type { i64 }
%union.anon.57 = type { i64 }
%union.anon.58 = type { i64 }
%union.anon.59 = type { i64 }
%union.anon.60 = type { i64 }
%"class.__gnu_cxx::__normal_iterator.44" = type { %"struct.std::pair.39"* }
%"class.__gnu_cxx::__normal_iterator.65" = type { %"class.std::vector.18"** }
%"class.__gnu_cxx::__normal_iterator.66" = type { i32* }
%struct.timezone = type { i32, i32 }
%"class.std::allocator.2" = type { i8 }
%"struct.__gnu_cxx::__ops::_Iter_comp_iter" = type { i1 (%"struct.std::pair.39"*, %"struct.std::pair.39"*)* }
%"class.std::allocator.7" = type { i8 }
%"class.std::allocator" = type { i8 }
%"class.std::allocator.45" = type { i8 }
%"class.__gnu_cxx::new_allocator.11" = type { i8 }
%"class.__gnu_cxx::new_allocator.46" = type { i8 }
%"class.__gnu_cxx::new_allocator.8" = type { i8 }
%"class.__gnu_cxx::new_allocator.3" = type { i8 }
%"class.__gnu_cxx::new_allocator" = type { i8 }
%"class.__gnu_cxx::new_allocator.24" = type { i8 }
%"class.std::allocator.61" = type { i8 }
%"class.__gnu_cxx::new_allocator.62" = type { i8 }
%"class.__gnu_cxx::new_allocator.16" = type { i8 }
%"struct.std::_Deque_iterator.64" = type { %"struct.std::pair"*, %"struct.std::pair"*, %"struct.std::pair"*, %"struct.std::pair"** }
%"class.__gnu_cxx::new_allocator.30" = type { i8 }
%"class.__gnu_cxx::new_allocator.37" = type { i8 }
%"class.std::_Temporary_buffer" = type { i64, i64, %"struct.std::pair.39"* }
%"struct.std::pair.67" = type { %"struct.std::pair.39"*, i64 }
%"struct.std::random_access_iterator_tag" = type { i8 }
%"struct.__gnu_cxx::__ops::_Val_comp_iter" = type { i1 (%"struct.std::pair.39"*, %"struct.std::pair.39"*)* }
%"struct.__gnu_cxx::__ops::_Iter_comp_val" = type { i1 (%"struct.std::pair.39"*, %"struct.std::pair.39"*)* }

$_ZNSt6vectorIPS_IiSaIiEESaIS2_EEC2Ev = comdat any

$_ZNSt5dequeISt4pairIiiESaIS1_EEC2Ev = comdat any

$_ZNSt5queueISt4pairIiiESt5dequeIS1_SaIS1_EEEC2ERKS4_ = comdat any

$_ZNSt5dequeISt4pairIiiESaIS1_EED2Ev = comdat any

$__clang_call_terminate = comdat any

$_ZNSt6vectorISt4pairIiS0_IPFvPvEiEESaIS5_EEC2Ev = comdat any

$_ZNSt6vectorIiSaIiEEC2Ev = comdat any

$_ZNSt6vectorIiSaIiEED2Ev = comdat any

$_ZNSt6vectorISt4pairIP9CVariableiESaIS3_EEC2Ev = comdat any

$_ZN7CSolver6dlevelEv = comdat any

$_ZNSt6vectorISt4pairIP9CVariableiESaIS3_EED2Ev = comdat any

$_ZNSt6vectorISt4pairIiS0_IPFvPvEiEESaIS5_EED2Ev = comdat any

$_ZNSt5queueISt4pairIiiESt5dequeIS1_SaIS1_EEED2Ev = comdat any

$_ZNSt6vectorIPS_IiSaIiEESaIS2_EED2Ev = comdat any

$_ZN9CDatabaseD2Ev = comdat any

$_ZN9CDatabase9variablesEv = comdat any

$_ZNKSt6vectorI9CVariableSaIS0_EE4sizeEv = comdat any

$_ZNSt6vectorIPS_IiSaIiEESaIS2_EEixEm = comdat any

$_ZN7CSolver16current_cpu_timeEv = comdat any

$_ZNKSt6vectorISt4pairIiS0_IPFvPvEiEESaIS5_EE4sizeEv = comdat any

$_ZNSt6vectorISt4pairIiS0_IPFvPvEiEESaIS5_EEixEm = comdat any

$_ZN9CDatabase4initEv = comdat any

$_ZN9CDatabase13num_variablesEv = comdat any

$_ZNSt6vectorIPS_IiSaIiEESaIS2_EE9push_backERKS2_ = comdat any

$_ZNSt6vectorISt4pairIP9CVariableiESaIS3_EE6resizeEmS3_ = comdat any

$_ZNSt4pairIP9CVariableiEC2Ev = comdat any

$_ZNSt6vectorIiSaIiEE6resizeEmi = comdat any

$_ZN7CSolver18current_world_timeEv = comdat any

$_ZN7CSolver4dumpERSo = comdat any

$_ZN7CSolver18num_free_variablesEv = comdat any

$_ZNSt6vectorI9CVariableSaIS0_EEixEm = comdat any

$_ZN9CVariable5valueEv = comdat any

$_ZN9CVariable6dlevelEv = comdat any

$_ZN9CVariable15set_antecedenceEi = comdat any

$_ZN9CVariable6ht_ptrEi = comdat any

$_ZNSt6vectorIP15CLitPoolElementSaIS1_EE5beginEv = comdat any

$_ZN9__gnu_cxxneIPP15CLitPoolElementSt6vectorIS2_SaIS2_EEEEbRKNS_17__normal_iteratorIT_T0_EESC_ = comdat any

$_ZNSt6vectorIP15CLitPoolElementSaIS1_EE3endEv = comdat any

$_ZNK9__gnu_cxx17__normal_iteratorIPP15CLitPoolElementSt6vectorIS2_SaIS2_EEEdeEv = comdat any

$_ZN15CLitPoolElement9directionEv = comdat any

$_ZN15CLitPoolElement3valEv = comdat any

$_ZN9CDatabase13literal_valueE15CLitPoolElement = comdat any

$_ZNSt6vectorIiSaIiEE9push_backERKi = comdat any

$_ZN7CSolver17queue_implicationEii = comdat any

$_ZN15CLitPoolElement5s_varEv = comdat any

$_ZN15CLitPoolElement5is_htEv = comdat any

$_ZN15CLitPoolElement9var_indexEv = comdat any

$_ZN15CLitPoolElement8var_signEv = comdat any

$_ZN9CDatabase8variableEi = comdat any

$_ZNSt6vectorIP15CLitPoolElementSaIS1_EE9push_backERKS1_ = comdat any

$_ZN15CLitPoolElement8unset_htEv = comdat any

$_ZN15CLitPoolElement6set_htEi = comdat any

$_ZNSt6vectorIP15CLitPoolElementSaIS1_EE4backEv = comdat any

$_ZNSt6vectorIP15CLitPoolElementSaIS1_EE8pop_backEv = comdat any

$_ZN9__gnu_cxx17__normal_iteratorIPP15CLitPoolElementSt6vectorIS2_SaIS2_EEEmmEv = comdat any

$_ZN9__gnu_cxx17__normal_iteratorIPP15CLitPoolElementSt6vectorIS2_SaIS2_EEEppEv = comdat any

$_ZN9CVariable13var_score_posEv = comdat any

$_ZN9CDatabase6clauseEi = comdat any

$_ZN7CClause8num_litsEv = comdat any

$_ZN7CClause8literalsEv = comdat any

$_ZNKSt6vectorIiSaIiEE4sizeEv = comdat any

$_ZNSt6vectorIiSaIiEEixEm = comdat any

$_ZN9CVariable15get_antecedenceEv = comdat any

$_ZN7CClause7literalEi = comdat any

$_ZN9CDatabase19num_deleted_clausesEv = comdat any

$_ZN9CDatabase20num_deleted_literalsEv = comdat any

$_ZN9CDatabase7clausesEv = comdat any

$_ZNSt6vectorI7CClauseSaIS0_EE5beginEv = comdat any

$_ZNK9__gnu_cxx17__normal_iteratorIP7CClauseSt6vectorIS1_SaIS1_EEEplEl = comdat any

$_ZN9CDatabase16init_num_clausesEv = comdat any

$_ZN9__gnu_cxxneIP7CClauseSt6vectorIS1_SaIS1_EEEEbRKNS_17__normal_iteratorIT_T0_EESB_ = comdat any

$_ZNSt6vectorI7CClauseSaIS0_EE3endEv = comdat any

$_ZNK9__gnu_cxx17__normal_iteratorIP7CClauseSt6vectorIS1_SaIS1_EEEdeEv = comdat any

$_ZN7CClause6in_useEv = comdat any

$_ZN9CDatabase19mark_clause_deletedER7CClause = comdat any

$_ZNSt5queueIiSt5dequeIiSaIiEEE4pushERKi = comdat any

$_ZN9__gnu_cxxmiIP7CClauseSt6vectorIS1_SaIS1_EEEENS_17__normal_iteratorIT_T0_E15difference_typeERKS9_SC_ = comdat any

$_ZlsRSoR7CClause = comdat any

$_ZN9__gnu_cxx17__normal_iteratorIP7CClauseSt6vectorIS1_SaIS1_EEEppEv = comdat any

$_ZNSt6vectorI9CVariableSaIS0_EE5beginEv = comdat any

$_ZN9__gnu_cxxneIP9CVariableSt6vectorIS1_SaIS1_EEEEbRKNS_17__normal_iteratorIT_T0_EESB_ = comdat any

$_ZNSt6vectorI9CVariableSaIS0_EE3endEv = comdat any

$_ZNK9__gnu_cxx17__normal_iteratorIP9CVariableSt6vectorIS1_SaIS1_EEEdeEv = comdat any

$_ZN9__gnu_cxx17__normal_iteratorIP9CVariableSt6vectorIS1_SaIS1_EEEppEv = comdat any

$_ZN9CVariable5scoreEi = comdat any

$_ZN9CVariable10lits_countEi = comdat any

$_ZNSt6vectorISt4pairIP9CVariableiESaIS3_EEixEm = comdat any

$_ZN9CVariable5scoreEv = comdat any

$_ZNSt4pairIP9CVariableiEC2ERKS1_RKi = comdat any

$_ZSt11stable_sortIN9__gnu_cxx17__normal_iteratorIPSt4pairIP9CVariableiESt6vectorIS5_SaIS5_EEEEPFbRKS5_SC_EEvT_SF_T0_ = comdat any

$_ZNSt6vectorISt4pairIP9CVariableiESaIS3_EE5beginEv = comdat any

$_ZNSt6vectorISt4pairIP9CVariableiESaIS3_EE3endEv = comdat any

$_Z16compare_var_statRKSt4pairIP9CVariableiES4_ = comdat any

$_ZNKSt6vectorISt4pairIP9CVariableiESaIS3_EE4sizeEv = comdat any

$_ZNKSt5queueISt4pairIiiESt5dequeIS1_SaIS1_EEE5emptyEv = comdat any

$_ZNSt5queueISt4pairIiiESt5dequeIS1_SaIS1_EEE5frontEv = comdat any

$_ZNK9__gnu_cxx17__normal_iteratorIP9CVariableSt6vectorIS1_SaIS1_EEEixEl = comdat any

$_ZNSt6vectorIiSaIiEE5clearEv = comdat any

$_ZNSt5queueISt4pairIiiESt5dequeIS1_SaIS1_EEE3popEv = comdat any

$_ZNKSt6vectorI7CClauseSaIS0_EE4sizeEv = comdat any

$_ZN9CVariable9is_markedEv = comdat any

$_ZN9CVariable10set_markedEv = comdat any

$_ZN9CVariable9in_new_clEv = comdat any

$_ZN9CVariable13set_in_new_clEi = comdat any

$_ZNSt5queueIiSt5dequeIiSaIiEEED2Ev = comdat any

$_ZNSt6vectorI7CClauseSaIS0_EED2Ev = comdat any

$_ZNSt6vectorI9CVariableSaIS0_EED2Ev = comdat any

$_ZNSt5dequeIiSaIiEED2Ev = comdat any

$_ZNSt5dequeIiSaIiEE15_M_destroy_dataESt15_Deque_iteratorIiRiPiES5_RKS0_ = comdat any

$_ZNSt5dequeIiSaIiEE5beginEv = comdat any

$_ZNSt5dequeIiSaIiEE3endEv = comdat any

$_ZNSt11_Deque_baseIiSaIiEE19_M_get_Tp_allocatorEv = comdat any

$_ZNSt11_Deque_baseIiSaIiEED2Ev = comdat any

$_ZNSt15_Deque_iteratorIiRiPiEC2ERKS2_ = comdat any

$_ZNSt11_Deque_baseIiSaIiEE16_M_destroy_nodesEPPiS3_ = comdat any

$_ZNSt11_Deque_baseIiSaIiEE17_M_deallocate_mapEPPim = comdat any

$_ZNSt11_Deque_baseIiSaIiEE11_Deque_implD2Ev = comdat any

$_ZNSt11_Deque_baseIiSaIiEE18_M_deallocate_nodeEPi = comdat any

$_ZN9__gnu_cxx14__alloc_traitsISaIiEE10deallocateERS1_Pim = comdat any

$_ZSt16__deque_buf_sizem = comdat any

$_ZN9__gnu_cxx13new_allocatorIiE10deallocateEPim = comdat any

$_ZNKSt11_Deque_baseIiSaIiEE20_M_get_map_allocatorEv = comdat any

$_ZN9__gnu_cxx14__alloc_traitsISaIPiEE10deallocateERS2_PS1_m = comdat any

$_ZNSaIPiED2Ev = comdat any

$_ZNKSt11_Deque_baseIiSaIiEE19_M_get_Tp_allocatorEv = comdat any

$_ZNSaIPiEC2IiEERKSaIT_E = comdat any

$_ZN9__gnu_cxx13new_allocatorIPiEC2Ev = comdat any

$_ZN9__gnu_cxx13new_allocatorIPiE10deallocateEPS1_m = comdat any

$_ZN9__gnu_cxx13new_allocatorIPiED2Ev = comdat any

$_ZNSaIiED2Ev = comdat any

$_ZN9__gnu_cxx13new_allocatorIiED2Ev = comdat any

$_ZSt8_DestroyIP7CClauseS0_EvT_S2_RSaIT0_E = comdat any

$_ZNSt12_Vector_baseI7CClauseSaIS0_EE19_M_get_Tp_allocatorEv = comdat any

$_ZNSt12_Vector_baseI7CClauseSaIS0_EED2Ev = comdat any

$_ZSt8_DestroyIP7CClauseEvT_S2_ = comdat any

$_ZNSt12_Destroy_auxILb0EE9__destroyIP7CClauseEEvT_S4_ = comdat any

$_ZSt8_DestroyI7CClauseEvPT_ = comdat any

$_ZSt11__addressofI7CClauseEPT_RS1_ = comdat any

$_ZN7CClauseD2Ev = comdat any

$_ZNSt12_Vector_baseI7CClauseSaIS0_EE13_M_deallocateEPS0_m = comdat any

$_ZNSt12_Vector_baseI7CClauseSaIS0_EE12_Vector_implD2Ev = comdat any

$_ZN9__gnu_cxx14__alloc_traitsISaI7CClauseEE10deallocateERS2_PS1_m = comdat any

$_ZN9__gnu_cxx13new_allocatorI7CClauseE10deallocateEPS1_m = comdat any

$_ZNSaI7CClauseED2Ev = comdat any

$_ZN9__gnu_cxx13new_allocatorI7CClauseED2Ev = comdat any

$_ZSt8_DestroyIP9CVariableS0_EvT_S2_RSaIT0_E = comdat any

$_ZNSt12_Vector_baseI9CVariableSaIS0_EE19_M_get_Tp_allocatorEv = comdat any

$_ZNSt12_Vector_baseI9CVariableSaIS0_EED2Ev = comdat any

$_ZSt8_DestroyIP9CVariableEvT_S2_ = comdat any

$_ZNSt12_Destroy_auxILb0EE9__destroyIP9CVariableEEvT_S4_ = comdat any

$_ZSt8_DestroyI9CVariableEvPT_ = comdat any

$_ZSt11__addressofI9CVariableEPT_RS1_ = comdat any

$_ZN9CVariableD2Ev = comdat any

$_ZNSt6vectorIP15CLitPoolElementSaIS1_EED2Ev = comdat any

$_ZSt8_DestroyIPP15CLitPoolElementS1_EvT_S3_RSaIT0_E = comdat any

$_ZNSt12_Vector_baseIP15CLitPoolElementSaIS1_EE19_M_get_Tp_allocatorEv = comdat any

$_ZNSt12_Vector_baseIP15CLitPoolElementSaIS1_EED2Ev = comdat any

$_ZSt8_DestroyIPP15CLitPoolElementEvT_S3_ = comdat any

$_ZNSt12_Destroy_auxILb1EE9__destroyIPP15CLitPoolElementEEvT_S5_ = comdat any

$_ZNSt12_Vector_baseIP15CLitPoolElementSaIS1_EE13_M_deallocateEPS1_m = comdat any

$_ZNSt12_Vector_baseIP15CLitPoolElementSaIS1_EE12_Vector_implD2Ev = comdat any

$_ZN9__gnu_cxx14__alloc_traitsISaIP15CLitPoolElementEE10deallocateERS3_PS2_m = comdat any

$_ZN9__gnu_cxx13new_allocatorIP15CLitPoolElementE10deallocateEPS2_m = comdat any

$_ZNSaIP15CLitPoolElementED2Ev = comdat any

$_ZN9__gnu_cxx13new_allocatorIP15CLitPoolElementED2Ev = comdat any

$_ZNSt12_Vector_baseI9CVariableSaIS0_EE13_M_deallocateEPS0_m = comdat any

$_ZNSt12_Vector_baseI9CVariableSaIS0_EE12_Vector_implD2Ev = comdat any

$_ZN9__gnu_cxx14__alloc_traitsISaI9CVariableEE10deallocateERS2_PS1_m = comdat any

$_ZN9__gnu_cxx13new_allocatorI9CVariableE10deallocateEPS1_m = comdat any

$_ZNSaI9CVariableED2Ev = comdat any

$_ZN9__gnu_cxx13new_allocatorI9CVariableED2Ev = comdat any

$_ZN9CDatabase11num_clausesEv = comdat any

$_ZN9CDatabase12num_literalsEv = comdat any

$_ZN9CDatabase17init_num_literalsEv = comdat any

$_ZNKSt5queueIiSt5dequeIiSaIiEEE4sizeEv = comdat any

$_ZNKSt5dequeIiSaIiEE4sizeEv = comdat any

$_ZStmiIiRiPiENSt15_Deque_iteratorIT_T0_T1_E15difference_typeERKS6_S9_ = comdat any

$_ZNSt15_Deque_iteratorIiRiPiE14_S_buffer_sizeEv = comdat any

$_ZNSt5queueISt4pairIiiESt5dequeIS1_SaIS1_EEE4pushERKS1_ = comdat any

$_ZNSt4pairIiiEC2ERKiS2_ = comdat any

$_ZNSt5dequeISt4pairIiiESaIS1_EE9push_backERKS1_ = comdat any

$_ZN9__gnu_cxx14__alloc_traitsISaISt4pairIiiEEE9constructIS2_EEvRS3_PS2_RKT_ = comdat any

$_ZNSt5dequeISt4pairIiiESaIS1_EE16_M_push_back_auxERKS1_ = comdat any

$_ZN9__gnu_cxx13new_allocatorISt4pairIiiEE9constructEPS2_RKS2_ = comdat any

$_ZNSt5dequeISt4pairIiiESaIS1_EE22_M_reserve_map_at_backEm = comdat any

$_ZNSt11_Deque_baseISt4pairIiiESaIS1_EE16_M_allocate_nodeEv = comdat any

$_ZNSt15_Deque_iteratorISt4pairIiiERS1_PS1_E11_M_set_nodeEPS3_ = comdat any

$_ZNSt11_Deque_baseISt4pairIiiESaIS1_EE18_M_deallocate_nodeEPS1_ = comdat any

$_ZNSt5dequeISt4pairIiiESaIS1_EE17_M_reallocate_mapEmb = comdat any

$_ZSt4copyIPPSt4pairIiiES3_ET0_T_S5_S4_ = comdat any

$_ZSt13copy_backwardIPPSt4pairIiiES3_ET0_T_S5_S4_ = comdat any

$_ZSt3maxImERKT_S2_S2_ = comdat any

$_ZNSt11_Deque_baseISt4pairIiiESaIS1_EE15_M_allocate_mapEm = comdat any

$_ZNSt11_Deque_baseISt4pairIiiESaIS1_EE17_M_deallocate_mapEPPS1_m = comdat any

$_ZSt14__copy_move_a2ILb0EPPSt4pairIiiES3_ET1_T0_S5_S4_ = comdat any

$_ZSt12__miter_baseIPPSt4pairIiiEENSt11_Miter_baseIT_E13iterator_typeES5_ = comdat any

$_ZSt13__copy_move_aILb0EPPSt4pairIiiES3_ET1_T0_S5_S4_ = comdat any

$_ZSt12__niter_baseIPPSt4pairIiiEENSt11_Niter_baseIT_E13iterator_typeES5_ = comdat any

$_ZNSt11__copy_moveILb0ELb1ESt26random_access_iterator_tagE8__copy_mIPSt4pairIiiEEEPT_PKS6_S9_S7_ = comdat any

$_ZNSt10_Iter_baseIPPSt4pairIiiELb0EE7_S_baseES3_ = comdat any

$_ZSt23__copy_move_backward_a2ILb0EPPSt4pairIiiES3_ET1_T0_S5_S4_ = comdat any

$_ZSt22__copy_move_backward_aILb0EPPSt4pairIiiES3_ET1_T0_S5_S4_ = comdat any

$_ZNSt20__copy_move_backwardILb0ELb1ESt26random_access_iterator_tagE13__copy_move_bIPSt4pairIiiEEEPT_PKS6_S9_S7_ = comdat any

$_ZNKSt11_Deque_baseISt4pairIiiESaIS1_EE20_M_get_map_allocatorEv = comdat any

$_ZN9__gnu_cxx14__alloc_traitsISaIPSt4pairIiiEEE8allocateERS4_m = comdat any

$_ZNSaIPSt4pairIiiEED2Ev = comdat any

$_ZNKSt11_Deque_baseISt4pairIiiESaIS1_EE19_M_get_Tp_allocatorEv = comdat any

$_ZNSaIPSt4pairIiiEEC2IS0_EERKSaIT_E = comdat any

$_ZN9__gnu_cxx13new_allocatorIPSt4pairIiiEEC2Ev = comdat any

$_ZN9__gnu_cxx13new_allocatorIPSt4pairIiiEE8allocateEmPKv = comdat any

$_ZNK9__gnu_cxx13new_allocatorIPSt4pairIiiEE8max_sizeEv = comdat any

$_ZN9__gnu_cxx13new_allocatorIPSt4pairIiiEED2Ev = comdat any

$_ZN9__gnu_cxx14__alloc_traitsISaIPSt4pairIiiEEE10deallocateERS4_PS3_m = comdat any

$_ZN9__gnu_cxx13new_allocatorIPSt4pairIiiEE10deallocateEPS3_m = comdat any

$_ZN9__gnu_cxx14__alloc_traitsISaISt4pairIiiEEE8allocateERS3_m = comdat any

$_ZN9__gnu_cxx13new_allocatorISt4pairIiiEE8allocateEmPKv = comdat any

$_ZNK9__gnu_cxx13new_allocatorISt4pairIiiEE8max_sizeEv = comdat any

$_ZNSt15_Deque_iteratorISt4pairIiiERS1_PS1_E14_S_buffer_sizeEv = comdat any

$_ZN9__gnu_cxx14__alloc_traitsISaISt4pairIiiEEE10deallocateERS3_PS2_m = comdat any

$_ZN9__gnu_cxx13new_allocatorISt4pairIiiEE10deallocateEPS2_m = comdat any

$_ZNSt6vectorI7CClauseSaIS0_EEixEm = comdat any

$_ZN7CClause4dumpERSo = comdat any

$_ZlsRSoR15CLitPoolElement = comdat any

$_ZN15CLitPoolElement4dumpERSo = comdat any

$_ZNSt12_Vector_baseIPSt6vectorIiSaIiEESaIS3_EEC2Ev = comdat any

$_ZNSt12_Vector_baseIPSt6vectorIiSaIiEESaIS3_EE12_Vector_implC2Ev = comdat any

$_ZNSaIPSt6vectorIiSaIiEEEC2Ev = comdat any

$_ZN9__gnu_cxx13new_allocatorIPSt6vectorIiSaIiEEEC2Ev = comdat any

$_ZNSt11_Deque_baseISt4pairIiiESaIS1_EEC2Ev = comdat any

$_ZNSt11_Deque_baseISt4pairIiiESaIS1_EE11_Deque_implC2Ev = comdat any

$_ZNSt11_Deque_baseISt4pairIiiESaIS1_EE17_M_initialize_mapEm = comdat any

$_ZNSt11_Deque_baseISt4pairIiiESaIS1_EE11_Deque_implD2Ev = comdat any

$_ZNSaISt4pairIiiEEC2Ev = comdat any

$_ZNSt15_Deque_iteratorISt4pairIiiERS1_PS1_EC2Ev = comdat any

$_ZNSaISt4pairIiiEED2Ev = comdat any

$_ZN9__gnu_cxx13new_allocatorISt4pairIiiEEC2Ev = comdat any

$_ZN9__gnu_cxx13new_allocatorISt4pairIiiEED2Ev = comdat any

$_ZNSt11_Deque_baseISt4pairIiiESaIS1_EE15_M_create_nodesEPPS1_S5_ = comdat any

$_ZNSt11_Deque_baseISt4pairIiiESaIS1_EE16_M_destroy_nodesEPPS1_S5_ = comdat any

$_ZNSt5dequeISt4pairIiiESaIS1_EE15_M_destroy_dataESt15_Deque_iteratorIS1_RS1_PS1_ES7_RKS2_ = comdat any

$_ZNSt5dequeISt4pairIiiESaIS1_EE5beginEv = comdat any

$_ZNSt5dequeISt4pairIiiESaIS1_EE3endEv = comdat any

$_ZNSt11_Deque_baseISt4pairIiiESaIS1_EE19_M_get_Tp_allocatorEv = comdat any

$_ZNSt11_Deque_baseISt4pairIiiESaIS1_EED2Ev = comdat any

$_ZNSt15_Deque_iteratorISt4pairIiiERS1_PS1_EC2ERKS4_ = comdat any

$_ZNSt5dequeISt4pairIiiESaIS1_EEC2ERKS3_ = comdat any

$_ZN9__gnu_cxx14__alloc_traitsISaISt4pairIiiEEE17_S_select_on_copyERKS3_ = comdat any

$_ZNKSt5dequeISt4pairIiiESaIS1_EE4sizeEv = comdat any

$_ZNSt11_Deque_baseISt4pairIiiESaIS1_EEC2ERKS2_m = comdat any

$_ZSt22__uninitialized_copy_aISt15_Deque_iteratorISt4pairIiiERKS2_PS3_ES0_IS2_RS2_PS2_ES2_ET0_T_SB_SA_RSaIT1_E = comdat any

$_ZNKSt5dequeISt4pairIiiESaIS1_EE5beginEv = comdat any

$_ZNKSt5dequeISt4pairIiiESaIS1_EE3endEv = comdat any

$_ZStmiISt4pairIiiERS1_PS1_ENSt15_Deque_iteratorIT_T0_T1_E15difference_typeERKS8_SB_ = comdat any

$_ZNSt11_Deque_baseISt4pairIiiESaIS1_EE11_Deque_implC2ERKS2_ = comdat any

$_ZNSaISt4pairIiiEEC2ERKS1_ = comdat any

$_ZN9__gnu_cxx13new_allocatorISt4pairIiiEEC2ERKS3_ = comdat any

$_ZSt18uninitialized_copyISt15_Deque_iteratorISt4pairIiiERKS2_PS3_ES0_IS2_RS2_PS2_EET0_T_SB_SA_ = comdat any

$_ZNSt20__uninitialized_copyILb0EE13__uninit_copyISt15_Deque_iteratorISt4pairIiiERKS4_PS5_ES2_IS4_RS4_PS4_EEET0_T_SD_SC_ = comdat any

$_ZStneISt4pairIiiERKS1_PS2_EbRKSt15_Deque_iteratorIT_T0_T1_ESB_ = comdat any

$_ZSt10_ConstructISt4pairIiiES1_EvPT_RKT0_ = comdat any

$_ZSt11__addressofISt4pairIiiEEPT_RS2_ = comdat any

$_ZNKSt15_Deque_iteratorISt4pairIiiERS1_PS1_EdeEv = comdat any

$_ZNKSt15_Deque_iteratorISt4pairIiiERKS1_PS2_EdeEv = comdat any

$_ZNSt15_Deque_iteratorISt4pairIiiERKS1_PS2_EppEv = comdat any

$_ZNSt15_Deque_iteratorISt4pairIiiERS1_PS1_EppEv = comdat any

$_ZSt8_DestroyISt15_Deque_iteratorISt4pairIiiERS2_PS2_EEvT_S6_ = comdat any

$_ZSteqISt4pairIiiERKS1_PS2_EbRKSt15_Deque_iteratorIT_T0_T1_ESB_ = comdat any

$_ZNSt15_Deque_iteratorISt4pairIiiERKS1_PS2_E11_M_set_nodeEPPS1_ = comdat any

$_ZNSt15_Deque_iteratorISt4pairIiiERKS1_PS2_E14_S_buffer_sizeEv = comdat any

$_ZNSt12_Destroy_auxILb1EE9__destroyISt15_Deque_iteratorISt4pairIiiERS4_PS4_EEEvT_S8_ = comdat any

$_ZNSt15_Deque_iteratorISt4pairIiiERKS1_PS2_EC2ERKS_IS1_RS1_PS1_E = comdat any

$_ZNSt12_Vector_baseISt4pairIiS0_IPFvPvEiEESaIS5_EEC2Ev = comdat any

$_ZNSt12_Vector_baseISt4pairIiS0_IPFvPvEiEESaIS5_EE12_Vector_implC2Ev = comdat any

$_ZNSaISt4pairIiS_IPFvPvEiEEEC2Ev = comdat any

$_ZN9__gnu_cxx13new_allocatorISt4pairIiS1_IPFvPvEiEEEC2Ev = comdat any

$_ZNSt12_Vector_baseIiSaIiEEC2Ev = comdat any

$_ZNSt12_Vector_baseIiSaIiEE12_Vector_implC2Ev = comdat any

$_ZNSaIiEC2Ev = comdat any

$_ZN9__gnu_cxx13new_allocatorIiEC2Ev = comdat any

$_ZNSt12_Vector_baseISt4pairIP9CVariableiESaIS3_EEC2Ev = comdat any

$_ZNSt12_Vector_baseISt4pairIP9CVariableiESaIS3_EE12_Vector_implC2Ev = comdat any

$_ZNSaISt4pairIP9CVariableiEEC2Ev = comdat any

$_ZN9__gnu_cxx13new_allocatorISt4pairIP9CVariableiEEC2Ev = comdat any

$_ZSt8_DestroyIPPSt6vectorIiSaIiEES3_EvT_S5_RSaIT0_E = comdat any

$_ZNSt12_Vector_baseIPSt6vectorIiSaIiEESaIS3_EE19_M_get_Tp_allocatorEv = comdat any

$_ZNSt12_Vector_baseIPSt6vectorIiSaIiEESaIS3_EED2Ev = comdat any

$_ZSt8_DestroyIPPSt6vectorIiSaIiEEEvT_S5_ = comdat any

$_ZNSt12_Destroy_auxILb1EE9__destroyIPPSt6vectorIiSaIiEEEEvT_S7_ = comdat any

$_ZNSt12_Vector_baseIPSt6vectorIiSaIiEESaIS3_EE13_M_deallocateEPS3_m = comdat any

$_ZNSt12_Vector_baseIPSt6vectorIiSaIiEESaIS3_EE12_Vector_implD2Ev = comdat any

$_ZN9__gnu_cxx14__alloc_traitsISaIPSt6vectorIiSaIiEEEE10deallocateERS5_PS4_m = comdat any

$_ZN9__gnu_cxx13new_allocatorIPSt6vectorIiSaIiEEE10deallocateEPS4_m = comdat any

$_ZNSaIPSt6vectorIiSaIiEEED2Ev = comdat any

$_ZN9__gnu_cxx13new_allocatorIPSt6vectorIiSaIiEEED2Ev = comdat any

$_ZSt8_DestroyIPSt4pairIiS0_IPFvPvEiEES5_EvT_S7_RSaIT0_E = comdat any

$_ZNSt12_Vector_baseISt4pairIiS0_IPFvPvEiEESaIS5_EE19_M_get_Tp_allocatorEv = comdat any

$_ZNSt12_Vector_baseISt4pairIiS0_IPFvPvEiEESaIS5_EED2Ev = comdat any

$_ZSt8_DestroyIPSt4pairIiS0_IPFvPvEiEEEvT_S7_ = comdat any

$_ZNSt12_Destroy_auxILb1EE9__destroyIPSt4pairIiS2_IPFvPvEiEEEEvT_S9_ = comdat any

$_ZNSt12_Vector_baseISt4pairIiS0_IPFvPvEiEESaIS5_EE13_M_deallocateEPS5_m = comdat any

$_ZNSt12_Vector_baseISt4pairIiS0_IPFvPvEiEESaIS5_EE12_Vector_implD2Ev = comdat any

$_ZN9__gnu_cxx14__alloc_traitsISaISt4pairIiS1_IPFvPvEiEEEE10deallocateERS7_PS6_m = comdat any

$_ZN9__gnu_cxx13new_allocatorISt4pairIiS1_IPFvPvEiEEE10deallocateEPS6_m = comdat any

$_ZNSaISt4pairIiS_IPFvPvEiEEED2Ev = comdat any

$_ZN9__gnu_cxx13new_allocatorISt4pairIiS1_IPFvPvEiEEED2Ev = comdat any

$_ZSt8_DestroyIPiiEvT_S1_RSaIT0_E = comdat any

$_ZNSt12_Vector_baseIiSaIiEE19_M_get_Tp_allocatorEv = comdat any

$_ZNSt12_Vector_baseIiSaIiEED2Ev = comdat any

$_ZSt8_DestroyIPiEvT_S1_ = comdat any

$_ZNSt12_Destroy_auxILb1EE9__destroyIPiEEvT_S3_ = comdat any

$_ZNSt12_Vector_baseIiSaIiEE13_M_deallocateEPim = comdat any

$_ZNSt12_Vector_baseIiSaIiEE12_Vector_implD2Ev = comdat any

$_ZSt8_DestroyIPSt4pairIP9CVariableiES3_EvT_S5_RSaIT0_E = comdat any

$_ZNSt12_Vector_baseISt4pairIP9CVariableiESaIS3_EE19_M_get_Tp_allocatorEv = comdat any

$_ZNSt12_Vector_baseISt4pairIP9CVariableiESaIS3_EED2Ev = comdat any

$_ZSt8_DestroyIPSt4pairIP9CVariableiEEvT_S5_ = comdat any

$_ZNSt12_Destroy_auxILb1EE9__destroyIPSt4pairIP9CVariableiEEEvT_S7_ = comdat any

$_ZNSt12_Vector_baseISt4pairIP9CVariableiESaIS3_EE13_M_deallocateEPS3_m = comdat any

$_ZNSt12_Vector_baseISt4pairIP9CVariableiESaIS3_EE12_Vector_implD2Ev = comdat any

$_ZN9__gnu_cxx14__alloc_traitsISaISt4pairIP9CVariableiEEE10deallocateERS5_PS4_m = comdat any

$_ZN9__gnu_cxx13new_allocatorISt4pairIP9CVariableiEE10deallocateEPS4_m = comdat any

$_ZNSaISt4pairIP9CVariableiEED2Ev = comdat any

$_ZN9__gnu_cxx13new_allocatorISt4pairIP9CVariableiEED2Ev = comdat any

$_ZN9__gnu_cxx14__alloc_traitsISaIPSt6vectorIiSaIiEEEE9constructIS4_EEvRS5_PS4_RKT_ = comdat any

$_ZNSt6vectorIPS_IiSaIiEESaIS2_EE13_M_insert_auxEN9__gnu_cxx17__normal_iteratorIPS2_S4_EERKS2_ = comdat any

$_ZNSt6vectorIPS_IiSaIiEESaIS2_EE3endEv = comdat any

$_ZN9__gnu_cxx13new_allocatorIPSt6vectorIiSaIiEEE9constructEPS4_RKS4_ = comdat any

$_ZSt13copy_backwardIPPSt6vectorIiSaIiEES4_ET0_T_S6_S5_ = comdat any

$_ZNK9__gnu_cxx17__normal_iteratorIPPSt6vectorIiSaIiEES1_IS4_SaIS4_EEE4baseEv = comdat any

$_ZNK9__gnu_cxx17__normal_iteratorIPPSt6vectorIiSaIiEES1_IS4_SaIS4_EEEdeEv = comdat any

$_ZNKSt6vectorIPS_IiSaIiEESaIS2_EE12_M_check_lenEmPKc = comdat any

$_ZN9__gnu_cxxmiIPPSt6vectorIiSaIiEES1_IS4_SaIS4_EEEENS_17__normal_iteratorIT_T0_E15difference_typeERKSB_SE_ = comdat any

$_ZNSt6vectorIPS_IiSaIiEESaIS2_EE5beginEv = comdat any

$_ZNSt12_Vector_baseIPSt6vectorIiSaIiEESaIS3_EE11_M_allocateEm = comdat any

$_ZSt34__uninitialized_move_if_noexcept_aIPPSt6vectorIiSaIiEES4_SaIS3_EET0_T_S7_S6_RT1_ = comdat any

$_ZN9__gnu_cxx14__alloc_traitsISaIPSt6vectorIiSaIiEEEE7destroyERS5_PS4_ = comdat any

$_ZSt23__copy_move_backward_a2ILb0EPPSt6vectorIiSaIiEES4_ET1_T0_S6_S5_ = comdat any

$_ZSt12__miter_baseIPPSt6vectorIiSaIiEEENSt11_Miter_baseIT_E13iterator_typeES6_ = comdat any

$_ZSt22__copy_move_backward_aILb0EPPSt6vectorIiSaIiEES4_ET1_T0_S6_S5_ = comdat any

$_ZSt12__niter_baseIPPSt6vectorIiSaIiEEENSt11_Niter_baseIT_E13iterator_typeES6_ = comdat any

$_ZNSt20__copy_move_backwardILb0ELb1ESt26random_access_iterator_tagE13__copy_move_bIPSt6vectorIiSaIiEEEEPT_PKS7_SA_S8_ = comdat any

$_ZNSt10_Iter_baseIPPSt6vectorIiSaIiEELb0EE7_S_baseES4_ = comdat any

$_ZNKSt6vectorIPS_IiSaIiEESaIS2_EE8max_sizeEv = comdat any

$_ZNKSt6vectorIPS_IiSaIiEESaIS2_EE4sizeEv = comdat any

$_ZN9__gnu_cxx14__alloc_traitsISaIPSt6vectorIiSaIiEEEE8max_sizeERKS5_ = comdat any

$_ZNKSt12_Vector_baseIPSt6vectorIiSaIiEESaIS3_EE19_M_get_Tp_allocatorEv = comdat any

$_ZNK9__gnu_cxx13new_allocatorIPSt6vectorIiSaIiEEE8max_sizeEv = comdat any

$_ZN9__gnu_cxx17__normal_iteratorIPPSt6vectorIiSaIiEES1_IS4_SaIS4_EEEC2ERKS5_ = comdat any

$_ZN9__gnu_cxx14__alloc_traitsISaIPSt6vectorIiSaIiEEEE8allocateERS5_m = comdat any

$_ZN9__gnu_cxx13new_allocatorIPSt6vectorIiSaIiEEE8allocateEmPKv = comdat any

$_ZSt22__uninitialized_copy_aIPPSt6vectorIiSaIiEES4_S3_ET0_T_S6_S5_RSaIT1_E = comdat any

$_ZSt18uninitialized_copyIPPSt6vectorIiSaIiEES4_ET0_T_S6_S5_ = comdat any

$_ZNSt20__uninitialized_copyILb1EE13__uninit_copyIPPSt6vectorIiSaIiEES6_EET0_T_S8_S7_ = comdat any

$_ZSt4copyIPPSt6vectorIiSaIiEES4_ET0_T_S6_S5_ = comdat any

$_ZSt14__copy_move_a2ILb0EPPSt6vectorIiSaIiEES4_ET1_T0_S6_S5_ = comdat any

$_ZSt13__copy_move_aILb0EPPSt6vectorIiSaIiEES4_ET1_T0_S6_S5_ = comdat any

$_ZNSt11__copy_moveILb0ELb1ESt26random_access_iterator_tagE8__copy_mIPSt6vectorIiSaIiEEEEPT_PKS7_SA_S8_ = comdat any

$_ZN9__gnu_cxx13new_allocatorIPSt6vectorIiSaIiEEE7destroyEPS4_ = comdat any

$_ZNSt6vectorISt4pairIP9CVariableiESaIS3_EE6insertEN9__gnu_cxx17__normal_iteratorIPS3_S5_EEmRKS3_ = comdat any

$_ZNSt6vectorISt4pairIP9CVariableiESaIS3_EE15_M_erase_at_endEPS3_ = comdat any

$_ZNSt6vectorISt4pairIP9CVariableiESaIS3_EE14_M_fill_insertEN9__gnu_cxx17__normal_iteratorIPS3_S5_EEmRKS3_ = comdat any

$_ZN9__gnu_cxxmiIPSt4pairIP9CVariableiESt6vectorIS4_SaIS4_EEEENS_17__normal_iteratorIT_T0_E15difference_typeERKSC_SF_ = comdat any

$_ZSt22__uninitialized_move_aIPSt4pairIP9CVariableiES4_SaIS3_EET0_T_S7_S6_RT1_ = comdat any

$_ZSt13copy_backwardIPSt4pairIP9CVariableiES4_ET0_T_S6_S5_ = comdat any

$_ZNK9__gnu_cxx17__normal_iteratorIPSt4pairIP9CVariableiESt6vectorIS4_SaIS4_EEE4baseEv = comdat any

$_ZSt4fillIPSt4pairIP9CVariableiES3_EvT_S5_RKT0_ = comdat any

$_ZSt24__uninitialized_fill_n_aIPSt4pairIP9CVariableiEmS3_S3_ET_S5_T0_RKT1_RSaIT2_E = comdat any

$_ZNKSt6vectorISt4pairIP9CVariableiESaIS3_EE12_M_check_lenEmPKc = comdat any

$_ZNSt12_Vector_baseISt4pairIP9CVariableiESaIS3_EE11_M_allocateEm = comdat any

$_ZSt34__uninitialized_move_if_noexcept_aIPSt4pairIP9CVariableiES4_SaIS3_EET0_T_S7_S6_RT1_ = comdat any

$_ZSt22__uninitialized_copy_aIPSt4pairIP9CVariableiES4_S3_ET0_T_S6_S5_RSaIT1_E = comdat any

$_ZSt18uninitialized_copyIPSt4pairIP9CVariableiES4_ET0_T_S6_S5_ = comdat any

$_ZNSt20__uninitialized_copyILb0EE13__uninit_copyIPSt4pairIP9CVariableiES6_EET0_T_S8_S7_ = comdat any

$_ZSt10_ConstructISt4pairIP9CVariableiES3_EvPT_RKT0_ = comdat any

$_ZSt11__addressofISt4pairIP9CVariableiEEPT_RS4_ = comdat any

$_ZSt23__copy_move_backward_a2ILb0EPSt4pairIP9CVariableiES4_ET1_T0_S6_S5_ = comdat any

$_ZSt12__miter_baseIPSt4pairIP9CVariableiEENSt11_Miter_baseIT_E13iterator_typeES6_ = comdat any

$_ZSt22__copy_move_backward_aILb0EPSt4pairIP9CVariableiES4_ET1_T0_S6_S5_ = comdat any

$_ZSt12__niter_baseIPSt4pairIP9CVariableiEENSt11_Niter_baseIT_E13iterator_typeES6_ = comdat any

$_ZNSt20__copy_move_backwardILb0ELb0ESt26random_access_iterator_tagE13__copy_move_bIPSt4pairIP9CVariableiES7_EET0_T_S9_S8_ = comdat any

$_ZNSt10_Iter_baseIPSt4pairIP9CVariableiELb0EE7_S_baseES4_ = comdat any

$_ZSt8__fill_aIPSt4pairIP9CVariableiES3_EN9__gnu_cxx11__enable_ifIXntsr11__is_scalarIT0_EE7__valueEvE6__typeET_SA_RKS7_ = comdat any

$_ZSt20uninitialized_fill_nIPSt4pairIP9CVariableiEmS3_ET_S5_T0_RKT1_ = comdat any

$_ZNSt22__uninitialized_fill_nILb0EE15__uninit_fill_nIPSt4pairIP9CVariableiEmS5_EET_S7_T0_RKT1_ = comdat any

$_ZNKSt6vectorISt4pairIP9CVariableiESaIS3_EE8max_sizeEv = comdat any

$_ZN9__gnu_cxx14__alloc_traitsISaISt4pairIP9CVariableiEEE8max_sizeERKS5_ = comdat any

$_ZNKSt12_Vector_baseISt4pairIP9CVariableiESaIS3_EE19_M_get_Tp_allocatorEv = comdat any

$_ZNK9__gnu_cxx13new_allocatorISt4pairIP9CVariableiEE8max_sizeEv = comdat any

$_ZN9__gnu_cxx14__alloc_traitsISaISt4pairIP9CVariableiEEE8allocateERS5_m = comdat any

$_ZN9__gnu_cxx13new_allocatorISt4pairIP9CVariableiEE8allocateEmPKv = comdat any

$_ZNSt6vectorIiSaIiEE6insertEN9__gnu_cxx17__normal_iteratorIPiS1_EEmRKi = comdat any

$_ZNSt6vectorIiSaIiEE3endEv = comdat any

$_ZNSt6vectorIiSaIiEE15_M_erase_at_endEPi = comdat any

$_ZNSt6vectorIiSaIiEE14_M_fill_insertEN9__gnu_cxx17__normal_iteratorIPiS1_EEmRKi = comdat any

$_ZN9__gnu_cxxmiIPiSt6vectorIiSaIiEEEENS_17__normal_iteratorIT_T0_E15difference_typeERKS8_SB_ = comdat any

$_ZSt22__uninitialized_move_aIPiS0_SaIiEET0_T_S3_S2_RT1_ = comdat any

$_ZSt13copy_backwardIPiS0_ET0_T_S2_S1_ = comdat any

$_ZNK9__gnu_cxx17__normal_iteratorIPiSt6vectorIiSaIiEEE4baseEv = comdat any

$_ZSt4fillIPiiEvT_S1_RKT0_ = comdat any

$_ZSt24__uninitialized_fill_n_aIPimiiET_S1_T0_RKT1_RSaIT2_E = comdat any

$_ZNKSt6vectorIiSaIiEE12_M_check_lenEmPKc = comdat any

$_ZNSt6vectorIiSaIiEE5beginEv = comdat any

$_ZNSt12_Vector_baseIiSaIiEE11_M_allocateEm = comdat any

$_ZSt34__uninitialized_move_if_noexcept_aIPiS0_SaIiEET0_T_S3_S2_RT1_ = comdat any

$_ZSt22__uninitialized_copy_aIPiS0_iET0_T_S2_S1_RSaIT1_E = comdat any

$_ZSt18uninitialized_copyIPiS0_ET0_T_S2_S1_ = comdat any

$_ZNSt20__uninitialized_copyILb1EE13__uninit_copyIPiS2_EET0_T_S4_S3_ = comdat any

$_ZSt4copyIPiS0_ET0_T_S2_S1_ = comdat any

$_ZSt14__copy_move_a2ILb0EPiS0_ET1_T0_S2_S1_ = comdat any

$_ZSt12__miter_baseIPiENSt11_Miter_baseIT_E13iterator_typeES2_ = comdat any

$_ZSt13__copy_move_aILb0EPiS0_ET1_T0_S2_S1_ = comdat any

$_ZSt12__niter_baseIPiENSt11_Niter_baseIT_E13iterator_typeES2_ = comdat any

$_ZNSt11__copy_moveILb0ELb1ESt26random_access_iterator_tagE8__copy_mIiEEPT_PKS3_S6_S4_ = comdat any

$_ZNSt10_Iter_baseIPiLb0EE7_S_baseES0_ = comdat any

$_ZSt23__copy_move_backward_a2ILb0EPiS0_ET1_T0_S2_S1_ = comdat any

$_ZSt22__copy_move_backward_aILb0EPiS0_ET1_T0_S2_S1_ = comdat any

$_ZNSt20__copy_move_backwardILb0ELb1ESt26random_access_iterator_tagE13__copy_move_bIiEEPT_PKS3_S6_S4_ = comdat any

$_ZSt8__fill_aIPiiEN9__gnu_cxx11__enable_ifIXsr11__is_scalarIT0_EE7__valueEvE6__typeET_S6_RKS3_ = comdat any

$_ZSt20uninitialized_fill_nIPimiET_S1_T0_RKT1_ = comdat any

$_ZNSt22__uninitialized_fill_nILb1EE15__uninit_fill_nIPimiEET_S3_T0_RKT1_ = comdat any

$_ZSt6fill_nIPimiET_S1_T0_RKT1_ = comdat any

$_ZSt10__fill_n_aIPimiEN9__gnu_cxx11__enable_ifIXsr11__is_scalarIT1_EE7__valueET_E6__typeES4_T0_RKS3_ = comdat any

$_ZNKSt6vectorIiSaIiEE8max_sizeEv = comdat any

$_ZN9__gnu_cxx14__alloc_traitsISaIiEE8max_sizeERKS1_ = comdat any

$_ZNKSt12_Vector_baseIiSaIiEE19_M_get_Tp_allocatorEv = comdat any

$_ZNK9__gnu_cxx13new_allocatorIiE8max_sizeEv = comdat any

$_ZN9__gnu_cxx17__normal_iteratorIPiSt6vectorIiSaIiEEEC2ERKS1_ = comdat any

$_ZN9__gnu_cxx14__alloc_traitsISaIiEE8allocateERS1_m = comdat any

$_ZN9__gnu_cxx13new_allocatorIiE8allocateEmPKv = comdat any

$_ZN9__gnu_cxx17__normal_iteratorIPP15CLitPoolElementSt6vectorIS2_SaIS2_EEEC2ERKS3_ = comdat any

$_ZNK9__gnu_cxx17__normal_iteratorIPP15CLitPoolElementSt6vectorIS2_SaIS2_EEE4baseEv = comdat any

$_ZN9__gnu_cxx14__alloc_traitsISaIiEE9constructIiEEvRS1_PiRKT_ = comdat any

$_ZNSt6vectorIiSaIiEE13_M_insert_auxEN9__gnu_cxx17__normal_iteratorIPiS1_EERKi = comdat any

$_ZN9__gnu_cxx13new_allocatorIiE9constructEPiRKi = comdat any

$_ZNK9__gnu_cxx17__normal_iteratorIPiSt6vectorIiSaIiEEEdeEv = comdat any

$_ZN9__gnu_cxx14__alloc_traitsISaIiEE7destroyERS1_Pi = comdat any

$_ZN9__gnu_cxx13new_allocatorIiE7destroyEPi = comdat any

$_ZN9__gnu_cxx14__alloc_traitsISaIP15CLitPoolElementEE9constructIS2_EEvRS3_PS2_RKT_ = comdat any

$_ZNSt6vectorIP15CLitPoolElementSaIS1_EE13_M_insert_auxEN9__gnu_cxx17__normal_iteratorIPS1_S3_EERKS1_ = comdat any

$_ZN9__gnu_cxx13new_allocatorIP15CLitPoolElementE9constructEPS2_RKS2_ = comdat any

$_ZSt13copy_backwardIPP15CLitPoolElementS2_ET0_T_S4_S3_ = comdat any

$_ZNKSt6vectorIP15CLitPoolElementSaIS1_EE12_M_check_lenEmPKc = comdat any

$_ZN9__gnu_cxxmiIPP15CLitPoolElementSt6vectorIS2_SaIS2_EEEENS_17__normal_iteratorIT_T0_E15difference_typeERKSA_SD_ = comdat any

$_ZNSt12_Vector_baseIP15CLitPoolElementSaIS1_EE11_M_allocateEm = comdat any

$_ZSt34__uninitialized_move_if_noexcept_aIPP15CLitPoolElementS2_SaIS1_EET0_T_S5_S4_RT1_ = comdat any

$_ZN9__gnu_cxx14__alloc_traitsISaIP15CLitPoolElementEE7destroyERS3_PS2_ = comdat any

$_ZSt23__copy_move_backward_a2ILb0EPP15CLitPoolElementS2_ET1_T0_S4_S3_ = comdat any

$_ZSt12__miter_baseIPP15CLitPoolElementENSt11_Miter_baseIT_E13iterator_typeES4_ = comdat any

$_ZSt22__copy_move_backward_aILb0EPP15CLitPoolElementS2_ET1_T0_S4_S3_ = comdat any

$_ZSt12__niter_baseIPP15CLitPoolElementENSt11_Niter_baseIT_E13iterator_typeES4_ = comdat any

$_ZNSt20__copy_move_backwardILb0ELb1ESt26random_access_iterator_tagE13__copy_move_bIP15CLitPoolElementEEPT_PKS5_S8_S6_ = comdat any

$_ZNSt10_Iter_baseIPP15CLitPoolElementLb0EE7_S_baseES2_ = comdat any

$_ZNKSt6vectorIP15CLitPoolElementSaIS1_EE8max_sizeEv = comdat any

$_ZNKSt6vectorIP15CLitPoolElementSaIS1_EE4sizeEv = comdat any

$_ZN9__gnu_cxx14__alloc_traitsISaIP15CLitPoolElementEE8max_sizeERKS3_ = comdat any

$_ZNKSt12_Vector_baseIP15CLitPoolElementSaIS1_EE19_M_get_Tp_allocatorEv = comdat any

$_ZNK9__gnu_cxx13new_allocatorIP15CLitPoolElementE8max_sizeEv = comdat any

$_ZN9__gnu_cxx14__alloc_traitsISaIP15CLitPoolElementEE8allocateERS3_m = comdat any

$_ZN9__gnu_cxx13new_allocatorIP15CLitPoolElementE8allocateEmPKv = comdat any

$_ZSt22__uninitialized_copy_aIPP15CLitPoolElementS2_S1_ET0_T_S4_S3_RSaIT1_E = comdat any

$_ZSt18uninitialized_copyIPP15CLitPoolElementS2_ET0_T_S4_S3_ = comdat any

$_ZNSt20__uninitialized_copyILb1EE13__uninit_copyIPP15CLitPoolElementS4_EET0_T_S6_S5_ = comdat any

$_ZSt4copyIPP15CLitPoolElementS2_ET0_T_S4_S3_ = comdat any

$_ZSt14__copy_move_a2ILb0EPP15CLitPoolElementS2_ET1_T0_S4_S3_ = comdat any

$_ZSt13__copy_move_aILb0EPP15CLitPoolElementS2_ET1_T0_S4_S3_ = comdat any

$_ZNSt11__copy_moveILb0ELb1ESt26random_access_iterator_tagE8__copy_mIP15CLitPoolElementEEPT_PKS5_S8_S6_ = comdat any

$_ZN9__gnu_cxx13new_allocatorIP15CLitPoolElementE7destroyEPS2_ = comdat any

$_ZNK9__gnu_cxx17__normal_iteratorIPP15CLitPoolElementSt6vectorIS2_SaIS2_EEEmiEl = comdat any

$_ZN9__gnu_cxx17__normal_iteratorIP7CClauseSt6vectorIS1_SaIS1_EEEC2ERKS2_ = comdat any

$_ZNK9__gnu_cxx17__normal_iteratorIP7CClauseSt6vectorIS1_SaIS1_EEE4baseEv = comdat any

$_ZNSt5dequeIiSaIiEE9push_backERKi = comdat any

$_ZNSt5dequeIiSaIiEE16_M_push_back_auxERKi = comdat any

$_ZNSt5dequeIiSaIiEE22_M_reserve_map_at_backEm = comdat any

$_ZNSt11_Deque_baseIiSaIiEE16_M_allocate_nodeEv = comdat any

$_ZNSt15_Deque_iteratorIiRiPiE11_M_set_nodeEPS1_ = comdat any

$_ZNSt5dequeIiSaIiEE17_M_reallocate_mapEmb = comdat any

$_ZSt4copyIPPiS1_ET0_T_S3_S2_ = comdat any

$_ZSt13copy_backwardIPPiS1_ET0_T_S3_S2_ = comdat any

$_ZNSt11_Deque_baseIiSaIiEE15_M_allocate_mapEm = comdat any

$_ZSt14__copy_move_a2ILb0EPPiS1_ET1_T0_S3_S2_ = comdat any

$_ZSt12__miter_baseIPPiENSt11_Miter_baseIT_E13iterator_typeES3_ = comdat any

$_ZSt13__copy_move_aILb0EPPiS1_ET1_T0_S3_S2_ = comdat any

$_ZSt12__niter_baseIPPiENSt11_Niter_baseIT_E13iterator_typeES3_ = comdat any

$_ZNSt11__copy_moveILb0ELb1ESt26random_access_iterator_tagE8__copy_mIPiEEPT_PKS4_S7_S5_ = comdat any

$_ZNSt10_Iter_baseIPPiLb0EE7_S_baseES1_ = comdat any

$_ZSt23__copy_move_backward_a2ILb0EPPiS1_ET1_T0_S3_S2_ = comdat any

$_ZSt22__copy_move_backward_aILb0EPPiS1_ET1_T0_S3_S2_ = comdat any

$_ZNSt20__copy_move_backwardILb0ELb1ESt26random_access_iterator_tagE13__copy_move_bIPiEEPT_PKS4_S7_S5_ = comdat any

$_ZN9__gnu_cxx14__alloc_traitsISaIPiEE8allocateERS2_m = comdat any

$_ZN9__gnu_cxx13new_allocatorIPiE8allocateEmPKv = comdat any

$_ZNK9__gnu_cxx13new_allocatorIPiE8max_sizeEv = comdat any

$_ZN9__gnu_cxx17__normal_iteratorIP9CVariableSt6vectorIS1_SaIS1_EEEC2ERKS2_ = comdat any

$_ZNK9__gnu_cxx17__normal_iteratorIP9CVariableSt6vectorIS1_SaIS1_EEE4baseEv = comdat any

$_ZN9__gnu_cxx17__normal_iteratorIPSt4pairIP9CVariableiESt6vectorIS4_SaIS4_EEEC2ERKS5_ = comdat any

$_ZSt13__stable_sortIN9__gnu_cxx17__normal_iteratorIPSt4pairIP9CVariableiESt6vectorIS5_SaIS5_EEEENS0_5__ops15_Iter_comp_iterIPFbRKS5_SE_EEEEvT_SI_T0_ = comdat any

$_ZN9__gnu_cxx5__ops16__iter_comp_iterIPFbRKSt4pairIP9CVariableiES7_EEENS0_15_Iter_comp_iterIT_EESB_ = comdat any

$_ZNSt17_Temporary_bufferIN9__gnu_cxx17__normal_iteratorIPSt4pairIP9CVariableiESt6vectorIS5_SaIS5_EEEES5_EC2ESA_SA_ = comdat any

$_ZNSt17_Temporary_bufferIN9__gnu_cxx17__normal_iteratorIPSt4pairIP9CVariableiESt6vectorIS5_SaIS5_EEEES5_E5beginEv = comdat any

$_ZSt21__inplace_stable_sortIN9__gnu_cxx17__normal_iteratorIPSt4pairIP9CVariableiESt6vectorIS5_SaIS5_EEEENS0_5__ops15_Iter_comp_iterIPFbRKS5_SE_EEEEvT_SI_T0_ = comdat any

$_ZSt22__stable_sort_adaptiveIN9__gnu_cxx17__normal_iteratorIPSt4pairIP9CVariableiESt6vectorIS5_SaIS5_EEEES6_lNS0_5__ops15_Iter_comp_iterIPFbRKS5_SE_EEEEvT_SI_T0_T1_T2_ = comdat any

$_ZNKSt17_Temporary_bufferIN9__gnu_cxx17__normal_iteratorIPSt4pairIP9CVariableiESt6vectorIS5_SaIS5_EEEES5_E4sizeEv = comdat any

$_ZNSt17_Temporary_bufferIN9__gnu_cxx17__normal_iteratorIPSt4pairIP9CVariableiESt6vectorIS5_SaIS5_EEEES5_ED2Ev = comdat any

$_ZSt8distanceIN9__gnu_cxx17__normal_iteratorIPSt4pairIP9CVariableiESt6vectorIS5_SaIS5_EEEEENSt15iterator_traitsIT_E15difference_typeESC_SC_ = comdat any

$_ZSt20get_temporary_bufferISt4pairIP9CVariableiEES0_IPT_lEl = comdat any

$_ZSt29__uninitialized_construct_bufIPSt4pairIP9CVariableiEN9__gnu_cxx17__normal_iteratorIS4_St6vectorIS3_SaIS3_EEEEEvT_SB_T0_ = comdat any

$_ZSt23return_temporary_bufferISt4pairIP9CVariableiEEvPT_ = comdat any

$_ZSt10__distanceIN9__gnu_cxx17__normal_iteratorIPSt4pairIP9CVariableiESt6vectorIS5_SaIS5_EEEEENSt15iterator_traitsIT_E15difference_typeESC_SC_St26random_access_iterator_tag = comdat any

$_ZSt19__iterator_categoryIN9__gnu_cxx17__normal_iteratorIPSt4pairIP9CVariableiESt6vectorIS5_SaIS5_EEEEENSt15iterator_traitsIT_E17iterator_categoryERKSC_ = comdat any

$_ZNSt4pairIPS_IP9CVariableiElEC2ERKS3_RKl = comdat any

$_ZNSt38__uninitialized_construct_buf_dispatchILb0EE5__ucrIPSt4pairIP9CVariableiEN9__gnu_cxx17__normal_iteratorIS6_St6vectorIS5_SaIS5_EEEEEEvT_SD_T0_ = comdat any

$_ZNK9__gnu_cxx17__normal_iteratorIPSt4pairIP9CVariableiESt6vectorIS4_SaIS4_EEEdeEv = comdat any

$_ZSt16__insertion_sortIN9__gnu_cxx17__normal_iteratorIPSt4pairIP9CVariableiESt6vectorIS5_SaIS5_EEEENS0_5__ops15_Iter_comp_iterIPFbRKS5_SE_EEEEvT_SI_T0_ = comdat any

$_ZNK9__gnu_cxx17__normal_iteratorIPSt4pairIP9CVariableiESt6vectorIS4_SaIS4_EEEplEl = comdat any

$_ZSt22__merge_without_bufferIN9__gnu_cxx17__normal_iteratorIPSt4pairIP9CVariableiESt6vectorIS5_SaIS5_EEEElNS0_5__ops15_Iter_comp_iterIPFbRKS5_SE_EEEEvT_SI_SI_T0_SJ_T1_ = comdat any

$_ZN9__gnu_cxxeqIPSt4pairIP9CVariableiESt6vectorIS4_SaIS4_EEEEbRKNS_17__normal_iteratorIT_T0_EESE_ = comdat any

$_ZN9__gnu_cxxneIPSt4pairIP9CVariableiESt6vectorIS4_SaIS4_EEEEbRKNS_17__normal_iteratorIT_T0_EESE_ = comdat any

$_ZN9__gnu_cxx5__ops15_Iter_comp_iterIPFbRKSt4pairIP9CVariableiES7_EEclINS_17__normal_iteratorIPS5_St6vectorIS5_SaIS5_EEEESH_EEbT_T0_ = comdat any

$_ZSt13copy_backwardIN9__gnu_cxx17__normal_iteratorIPSt4pairIP9CVariableiESt6vectorIS5_SaIS5_EEEESA_ET0_T_SC_SB_ = comdat any

$_ZSt25__unguarded_linear_insertIN9__gnu_cxx17__normal_iteratorIPSt4pairIP9CVariableiESt6vectorIS5_SaIS5_EEEENS0_5__ops14_Val_comp_iterIPFbRKS5_SE_EEEEvT_T0_ = comdat any

$_ZN9__gnu_cxx5__ops15__val_comp_iterIPFbRKSt4pairIP9CVariableiES7_EEENS0_14_Val_comp_iterIT_EENS0_15_Iter_comp_iterISB_EE = comdat any

$_ZN9__gnu_cxx17__normal_iteratorIPSt4pairIP9CVariableiESt6vectorIS4_SaIS4_EEEppEv = comdat any

$_ZSt23__copy_move_backward_a2ILb0EN9__gnu_cxx17__normal_iteratorIPSt4pairIP9CVariableiESt6vectorIS5_SaIS5_EEEESA_ET1_T0_SC_SB_ = comdat any

$_ZSt12__miter_baseIN9__gnu_cxx17__normal_iteratorIPSt4pairIP9CVariableiESt6vectorIS5_SaIS5_EEEEENSt11_Miter_baseIT_E13iterator_typeESC_ = comdat any

$_ZSt12__niter_baseIN9__gnu_cxx17__normal_iteratorIPSt4pairIP9CVariableiESt6vectorIS5_SaIS5_EEEEENSt11_Niter_baseIT_E13iterator_typeESC_ = comdat any

$_ZNSt10_Iter_baseIN9__gnu_cxx17__normal_iteratorIPSt4pairIP9CVariableiESt6vectorIS5_SaIS5_EEEELb1EE7_S_baseESA_ = comdat any

$_ZNSt10_Iter_baseIN9__gnu_cxx17__normal_iteratorIPSt4pairIP9CVariableiESt6vectorIS5_SaIS5_EEEELb0EE7_S_baseESA_ = comdat any

$_ZN9__gnu_cxx17__normal_iteratorIPSt4pairIP9CVariableiESt6vectorIS4_SaIS4_EEEmmEv = comdat any

$_ZN9__gnu_cxx5__ops14_Val_comp_iterIPFbRKSt4pairIP9CVariableiES7_EEclIS5_NS_17__normal_iteratorIPS5_St6vectorIS5_SaIS5_EEEEEEbRT_T0_ = comdat any

$_ZN9__gnu_cxx5__ops14_Val_comp_iterIPFbRKSt4pairIP9CVariableiES7_EEC2ES9_ = comdat any

$_ZSt9iter_swapIN9__gnu_cxx17__normal_iteratorIPSt4pairIP9CVariableiESt6vectorIS5_SaIS5_EEEESA_EvT_T0_ = comdat any

$_ZSt7advanceIN9__gnu_cxx17__normal_iteratorIPSt4pairIP9CVariableiESt6vectorIS5_SaIS5_EEEElEvRT_T0_ = comdat any

$_ZSt13__lower_boundIN9__gnu_cxx17__normal_iteratorIPSt4pairIP9CVariableiESt6vectorIS5_SaIS5_EEEES5_NS0_5__ops14_Iter_comp_valIPFbRKS5_SE_EEEET_SI_SI_RKT0_T1_ = comdat any

$_ZN9__gnu_cxx5__ops15__iter_comp_valIPFbRKSt4pairIP9CVariableiES7_EEENS0_14_Iter_comp_valIT_EENS0_15_Iter_comp_iterISB_EE = comdat any

$_ZSt13__upper_boundIN9__gnu_cxx17__normal_iteratorIPSt4pairIP9CVariableiESt6vectorIS5_SaIS5_EEEES5_NS0_5__ops14_Val_comp_iterIPFbRKS5_SE_EEEET_SI_SI_RKT0_T1_ = comdat any

$_ZNSt3_V26rotateIN9__gnu_cxx17__normal_iteratorIPSt4pairIP9CVariableiESt6vectorIS6_SaIS6_EEEEEET_SC_SC_SC_ = comdat any

$_ZNSt11__iter_swapILb1EE9iter_swapIN9__gnu_cxx17__normal_iteratorIPSt4pairIP9CVariableiESt6vectorIS7_SaIS7_EEEESC_EEvT_T0_ = comdat any

$_ZSt4swapISt4pairIP9CVariableiEEvRT_S5_ = comdat any

$_ZSt9__advanceIN9__gnu_cxx17__normal_iteratorIPSt4pairIP9CVariableiESt6vectorIS5_SaIS5_EEEElEvRT_T0_St26random_access_iterator_tag = comdat any

$_ZN9__gnu_cxx17__normal_iteratorIPSt4pairIP9CVariableiESt6vectorIS4_SaIS4_EEEpLEl = comdat any

$_ZN9__gnu_cxx5__ops14_Iter_comp_valIPFbRKSt4pairIP9CVariableiES7_EEclINS_17__normal_iteratorIPS5_St6vectorIS5_SaIS5_EEEES6_EEbT_RT0_ = comdat any

$_ZN9__gnu_cxx5__ops14_Iter_comp_valIPFbRKSt4pairIP9CVariableiES7_EEC2ES9_ = comdat any

$_ZN9__gnu_cxx5__ops14_Val_comp_iterIPFbRKSt4pairIP9CVariableiES7_EEclIS6_NS_17__normal_iteratorIPS5_St6vectorIS5_SaIS5_EEEEEEbRT_T0_ = comdat any

$_ZNSt3_V28__rotateIN9__gnu_cxx17__normal_iteratorIPSt4pairIP9CVariableiESt6vectorIS6_SaIS6_EEEEEET_SC_SC_SC_St26random_access_iterator_tag = comdat any

$_ZSt11swap_rangesIN9__gnu_cxx17__normal_iteratorIPSt4pairIP9CVariableiESt6vectorIS5_SaIS5_EEEESA_ET0_T_SC_SB_ = comdat any

$_ZSt4swapIlEvRT_S1_ = comdat any

$_ZNK9__gnu_cxx17__normal_iteratorIPSt4pairIP9CVariableiESt6vectorIS4_SaIS4_EEEmiEl = comdat any

$_ZSt24__merge_sort_with_bufferIN9__gnu_cxx17__normal_iteratorIPSt4pairIP9CVariableiESt6vectorIS5_SaIS5_EEEES6_NS0_5__ops15_Iter_comp_iterIPFbRKS5_SE_EEEEvT_SI_T0_T1_ = comdat any

$_ZSt16__merge_adaptiveIN9__gnu_cxx17__normal_iteratorIPSt4pairIP9CVariableiESt6vectorIS5_SaIS5_EEEElS6_NS0_5__ops15_Iter_comp_iterIPFbRKS5_SE_EEEEvT_SI_SI_T0_SJ_T1_SJ_T2_ = comdat any

$_ZSt22__chunk_insertion_sortIN9__gnu_cxx17__normal_iteratorIPSt4pairIP9CVariableiESt6vectorIS5_SaIS5_EEEElNS0_5__ops15_Iter_comp_iterIPFbRKS5_SE_EEEEvT_SI_T0_T1_ = comdat any

$_ZSt17__merge_sort_loopIN9__gnu_cxx17__normal_iteratorIPSt4pairIP9CVariableiESt6vectorIS5_SaIS5_EEEES6_lNS0_5__ops15_Iter_comp_iterIPFbRKS5_SE_EEEEvT_SI_T0_T1_T2_ = comdat any

$_ZSt17__merge_sort_loopIPSt4pairIP9CVariableiEN9__gnu_cxx17__normal_iteratorIS4_St6vectorIS3_SaIS3_EEEElNS5_5__ops15_Iter_comp_iterIPFbRKS3_SE_EEEEvT_SI_T0_T1_T2_ = comdat any

$_ZSt12__move_mergeIN9__gnu_cxx17__normal_iteratorIPSt4pairIP9CVariableiESt6vectorIS5_SaIS5_EEEES6_NS0_5__ops15_Iter_comp_iterIPFbRKS5_SE_EEEET0_T_SJ_SJ_SJ_SI_T1_ = comdat any

$_ZSt3minIlERKT_S2_S2_ = comdat any

$_ZSt4copyIN9__gnu_cxx17__normal_iteratorIPSt4pairIP9CVariableiESt6vectorIS5_SaIS5_EEEES6_ET0_T_SC_SB_ = comdat any

$_ZSt14__copy_move_a2ILb0EN9__gnu_cxx17__normal_iteratorIPSt4pairIP9CVariableiESt6vectorIS5_SaIS5_EEEES6_ET1_T0_SC_SB_ = comdat any

$_ZSt13__copy_move_aILb0EPSt4pairIP9CVariableiES4_ET1_T0_S6_S5_ = comdat any

$_ZNSt11__copy_moveILb0ELb0ESt26random_access_iterator_tagE8__copy_mIPSt4pairIP9CVariableiES7_EET0_T_S9_S8_ = comdat any

$_ZSt12__move_mergeIPSt4pairIP9CVariableiEN9__gnu_cxx17__normal_iteratorIS4_St6vectorIS3_SaIS3_EEEENS5_5__ops15_Iter_comp_iterIPFbRKS3_SE_EEEET0_T_SJ_SJ_SJ_SI_T1_ = comdat any

$_ZN9__gnu_cxx5__ops15_Iter_comp_iterIPFbRKSt4pairIP9CVariableiES7_EEclIPS5_SC_EEbT_T0_ = comdat any

$_ZSt4copyIPSt4pairIP9CVariableiEN9__gnu_cxx17__normal_iteratorIS4_St6vectorIS3_SaIS3_EEEEET0_T_SC_SB_ = comdat any

$_ZSt14__copy_move_a2ILb0EPSt4pairIP9CVariableiEN9__gnu_cxx17__normal_iteratorIS4_St6vectorIS3_SaIS3_EEEEET1_T0_SC_SB_ = comdat any

$_ZSt21__move_merge_adaptiveIPSt4pairIP9CVariableiEN9__gnu_cxx17__normal_iteratorIS4_St6vectorIS3_SaIS3_EEEESA_NS5_5__ops15_Iter_comp_iterIPFbRKS3_SE_EEEEvT_SI_T0_SJ_T1_T2_ = comdat any

$_ZSt30__move_merge_adaptive_backwardIN9__gnu_cxx17__normal_iteratorIPSt4pairIP9CVariableiESt6vectorIS5_SaIS5_EEEES6_SA_NS0_5__ops15_Iter_comp_iterIPFbRKS5_SE_EEEEvT_SI_T0_SJ_T1_T2_ = comdat any

$_ZSt17__rotate_adaptiveIN9__gnu_cxx17__normal_iteratorIPSt4pairIP9CVariableiESt6vectorIS5_SaIS5_EEEES6_lET_SB_SB_SB_T1_SC_T0_SC_ = comdat any

$_ZN9__gnu_cxx5__ops15_Iter_comp_iterIPFbRKSt4pairIP9CVariableiES7_EEclINS_17__normal_iteratorIPS5_St6vectorIS5_SaIS5_EEEESD_EEbT_T0_ = comdat any

$_ZSt13copy_backwardIPSt4pairIP9CVariableiEN9__gnu_cxx17__normal_iteratorIS4_St6vectorIS3_SaIS3_EEEEET0_T_SC_SB_ = comdat any

$_ZN9__gnu_cxx5__ops15_Iter_comp_iterIPFbRKSt4pairIP9CVariableiES7_EEclIPS5_NS_17__normal_iteratorISC_St6vectorIS5_SaIS5_EEEEEEbT_T0_ = comdat any

$_ZSt23__copy_move_backward_a2ILb0EPSt4pairIP9CVariableiEN9__gnu_cxx17__normal_iteratorIS4_St6vectorIS3_SaIS3_EEEEET1_T0_SC_SB_ = comdat any

$_ZSt4copyIN9__gnu_cxx17__normal_iteratorIPSt4pairIP9CVariableiESt6vectorIS5_SaIS5_EEEESA_ET0_T_SC_SB_ = comdat any

$_ZSt14__copy_move_a2ILb0EN9__gnu_cxx17__normal_iteratorIPSt4pairIP9CVariableiESt6vectorIS5_SaIS5_EEEESA_ET1_T0_SC_SB_ = comdat any

$_ZN9__gnu_cxx5__ops15_Iter_comp_iterIPFbRKSt4pairIP9CVariableiES7_EEC2ES9_ = comdat any

$_ZNKSt5dequeISt4pairIiiESaIS1_EE5emptyEv = comdat any

$_ZSteqISt4pairIiiERS1_PS1_EbRKSt15_Deque_iteratorIT_T0_T1_ESA_ = comdat any

$_ZNSt5dequeISt4pairIiiESaIS1_EE5frontEv = comdat any

$_ZNSt5dequeISt4pairIiiESaIS1_EE9pop_frontEv = comdat any

$_ZN9__gnu_cxx14__alloc_traitsISaISt4pairIiiEEE7destroyERS3_PS2_ = comdat any

$_ZNSt5dequeISt4pairIiiESaIS1_EE16_M_pop_front_auxEv = comdat any

$_ZN9__gnu_cxx13new_allocatorISt4pairIiiEE7destroyEPS2_ = comdat any

@_ZStL8__ioinit = internal global %"class.std::ios_base::Init" zeroinitializer, align 1
@__dso_handle = external global i8
@_ZSt4cout = external global %"class.std::basic_ostream", align 8
@.str = private unnamed_addr constant [11 x i8] c"restart...\00", align 1
@_ZSt4cerr = external global %"class.std::basic_ostream", align 8
@.str.1 = private unnamed_addr constant [52 x i8] c"CSolver::run_periodic_functions(void) is trying to \00", align 1
@.str.2 = private unnamed_addr constant [37 x i8] c"activate restart().\0AERROR. Exiting.\0A\00", align 1
@.str.3 = private unnamed_addr constant [68 x i8] c"asap_solver.cpp::init(Solution* results) : Results vector invalid!\0A\00", align 1
@.str.4 = private unnamed_addr constant [25 x i8] c"value == 0 || value == 1\00", align 1
@.str.5 = private unnamed_addr constant [16 x i8] c"asap_solver.cpp\00", align 1
@__PRETTY_FUNCTION__._ZN7CSolver13set_var_valueEiiii = private unnamed_addr constant [54 x i8] c"void CSolver::set_var_value(int, int, ClauseIdx, int)\00", align 1
@.str.6 = private unnamed_addr constant [23 x i8] c"var.value() == UNKNOWN\00", align 1
@.str.7 = private unnamed_addr constant [11 x i8] c"Unset var \00", align 1
@.str.8 = private unnamed_addr constant [2 x i8] c"+\00", align 1
@.str.9 = private unnamed_addr constant [2 x i8] c"-\00", align 1
@.str.10 = private unnamed_addr constant [20 x i8] c"Assignment Stack:  \00", align 1
@.str.11 = private unnamed_addr constant [2 x i8] c"*\00", align 1
@.str.12 = private unnamed_addr constant [2 x i8] c"(\00", align 1
@.str.13 = private unnamed_addr constant [2 x i8] c":\00", align 1
@.str.14 = private unnamed_addr constant [2 x i8] c",\00", align 1
@.str.15 = private unnamed_addr constant [3 x i8] c") \00", align 1
@.str.16 = private unnamed_addr constant [50 x i8] c"Forced to reduce unrelevance in clause deletion. \00", align 1
@.str.17 = private unnamed_addr constant [11 x i8] c"MaxUnrel: \00", align 1
@.str.18 = private unnamed_addr constant [14 x i8] c"  MinLenDel: \00", align 1
@.str.19 = private unnamed_addr constant [14 x i8] c"  MaxLenCL : \00", align 1
@.str.20 = private unnamed_addr constant [29 x i8] c"Deleting Unrelevant clause: \00", align 1
@.str.21 = private unnamed_addr constant [28 x i8] c"Deleting too large clause: \00", align 1
@.str.22 = private unnamed_addr constant [19 x i8] c"Before decision :\0A\00", align 1
@.str.23 = private unnamed_addr constant [24 x i8] c"ptr->value() == UNKNOWN\00", align 1
@__PRETTY_FUNCTION__._ZN7CSolver18decide_next_branchEv = private unnamed_addr constant [35 x i8] c"bool CSolver::decide_next_branch()\00", align 1
@.str.24 = private unnamed_addr constant [20 x i8] c"Decision Variable: \00", align 1
@.str.25 = private unnamed_addr constant [15 x i8] c"Back track to \00", align 1
@.str.26 = private unnamed_addr constant [16 x i8] c" ,currently in \00", align 1
@.str.27 = private unnamed_addr constant [8 x i8] c" level \00", align 1
@.str.28 = private unnamed_addr constant [23 x i8] c"blevel <= dlevel() + 1\00", align 1
@__PRETTY_FUNCTION__._ZN7CSolver10back_trackEi = private unnamed_addr constant [30 x i8] c"void CSolver::back_track(int)\00", align 1
@.str.29 = private unnamed_addr constant [31 x i8] c"In deduce,_conflicts.size() = \00", align 1
@.str.30 = private unnamed_addr constant [16 x i8] c"ERROR. Exiting!\00", align 1
@.str.31 = private unnamed_addr constant [37 x i8] c"CSolver::deduce - forcing a variable\00", align 1
@.str.32 = private unnamed_addr constant [42 x i8] c" with previous assignment is not allowed\0A\00", align 1
@.str.33 = private unnamed_addr constant [58 x i8] c"CSolver::deduce - implicating a variable with assignment \00", align 1
@.str.34 = private unnamed_addr constant [32 x i8] c"in higher level is not allowed\0A\00", align 1
@.str.35 = private unnamed_addr constant [25 x i8] c"verify integrity failed.\00", align 1
@.str.36 = private unnamed_addr constant [29 x i8] c"The clause that failed is : \00", align 1
@.str.37 = private unnamed_addr constant [5 x i8] c"\09->\09\00", align 1
@.str.38 = private unnamed_addr constant [2 x i8] c"\09\00", align 1
@.str.39 = private unnamed_addr constant [54 x i8] c"CSolver::iRgithToj: level > dlevel() is not allowed.\0A\00", align 1
@.str.40 = private unnamed_addr constant [27 x i8] c"variable(v).dlevel() <= dl\00", align 1
@__PRETTY_FUNCTION__._ZN7CSolver18mark_vars_at_levelEiiii = private unnamed_addr constant [59 x i8] c"void CSolver::mark_vars_at_level(ClauseIdx, int, int, int)\00", align 1
@.str.41 = private unnamed_addr constant [63 x i8] c"CSolver::findFirstRootIndex: level > dlevel() is not allowed.\0A\00", align 1
@.str.42 = private unnamed_addr constant [16 x i8] c"\09\09\09\09\09\09Queueing \00", align 1
@.str.43 = private unnamed_addr constant [3 x i8] c" -\00", align 1
@.str.44 = private unnamed_addr constant [3 x i8] c" +\00", align 1
@.str.45 = private unnamed_addr constant [14 x i8] c" because of  \00", align 1
@.str.46 = private unnamed_addr constant [22 x i8] c"\09\09\09======removed=====\00", align 1
@.str.47 = private unnamed_addr constant [22 x i8] c"vector::_M_insert_aux\00", align 1
@.str.48 = private unnamed_addr constant [23 x i8] c"vector::_M_fill_insert\00", align 1
@_ZSt7nothrow = external global %"struct.std::nothrow_t", align 1
@llvm.global_ctors = appending global [1 x { i32, void ()*, i8* }] [{ i32, void ()*, i8* } { i32 65535, void ()* @_GLOBAL__sub_I_asap_solver.cpp, i8* null }]

@_ZN7CSolverC1Ev = alias void (%class.CSolver*), void (%class.CSolver*)* @_ZN7CSolverC2Ev
@_ZN7CSolverD1Ev = alias void (%class.CSolver*), void (%class.CSolver*)* @_ZN7CSolverD2Ev

; Function Attrs: uwtable
define internal void @__cxx_global_var_init() #0 section ".text.startup" {
  call void @_ZNSt8ios_base4InitC1Ev(%"class.std::ios_base::Init"* @_ZStL8__ioinit)
  %1 = call i32 @__cxa_atexit(void (i8*)* bitcast (void (%"class.std::ios_base::Init"*)* @_ZNSt8ios_base4InitD1Ev to void (i8*)*), i8* getelementptr inbounds (%"class.std::ios_base::Init", %"class.std::ios_base::Init"* @_ZStL8__ioinit, i32 0, i32 0), i8* @__dso_handle) #2
  ret void
}

declare void @_ZNSt8ios_base4InitC1Ev(%"class.std::ios_base::Init"*) #1

declare void @_ZNSt8ios_base4InitD1Ev(%"class.std::ios_base::Init"*) #1

; Function Attrs: nounwind
declare i32 @__cxa_atexit(void (i8*)*, i8*, i8*) #2

; Function Attrs: uwtable
define void @_ZN7CSolverC2Ev(%class.CSolver* %this) unnamed_addr #0 align 2 personality i8* bitcast (i32 (...)* @__gxx_personality_v0 to i8*) {
  %1 = alloca %class.CSolver*, align 8
  %2 = alloca i8*
  %3 = alloca i32
  %4 = alloca %"class.std::deque.21", align 8
  store %class.CSolver* %this, %class.CSolver** %1, align 8
  %5 = load %class.CSolver*, %class.CSolver** %1, align 8
  %6 = bitcast %class.CSolver* %5 to %class.CDatabase*
  call void @_ZN9CDatabaseC2Ev(%class.CDatabase* %6)
  %7 = getelementptr inbounds %class.CSolver, %class.CSolver* %5, i32 0, i32 3
  invoke void @_ZNSt6vectorIPS_IiSaIiEESaIS2_EEC2Ev(%"class.std::vector.13"* %7)
          to label %8 unwind label %134

; <label>:8                                       ; preds = %0
  %9 = getelementptr inbounds %class.CSolver, %class.CSolver* %5, i32 0, i32 4
  invoke void @_ZNSt5dequeISt4pairIiiESaIS1_EEC2Ev(%"class.std::deque.21"* %4)
          to label %10 unwind label %138

; <label>:10                                      ; preds = %8
  invoke void @_ZNSt5queueISt4pairIiiESt5dequeIS1_SaIS1_EEEC2ERKS4_(%"class.std::queue.20"* %9, %"class.std::deque.21"* dereferenceable(80) %4)
          to label %11 unwind label %142

; <label>:11                                      ; preds = %10
  invoke void @_ZNSt5dequeISt4pairIiiESaIS1_EED2Ev(%"class.std::deque.21"* %4)
          to label %12 unwind label %138

; <label>:12                                      ; preds = %11
  %13 = getelementptr inbounds %class.CSolver, %class.CSolver* %5, i32 0, i32 5
  %14 = getelementptr inbounds %class.CSolver, %class.CSolver* %5, i32 0, i32 6
  invoke void @_ZNSt6vectorISt4pairIiS0_IPFvPvEiEESaIS5_EEC2Ev(%"class.std::vector.27"* %14)
          to label %15 unwind label %147

; <label>:15                                      ; preds = %12
  %16 = getelementptr inbounds %class.CSolver, %class.CSolver* %5, i32 0, i32 8
  %17 = getelementptr inbounds [2 x %"class.std::vector.18"], [2 x %"class.std::vector.18"]* %16, i32 0, i32 0
  %18 = getelementptr inbounds %"class.std::vector.18", %"class.std::vector.18"* %17, i64 2
  br label %19

; <label>:19                                      ; preds = %21, %15
  %20 = phi %"class.std::vector.18"* [ %17, %15 ], [ %22, %21 ]
  invoke void @_ZNSt6vectorIiSaIiEEC2Ev(%"class.std::vector.18"* %20)
          to label %21 unwind label %151

; <label>:21                                      ; preds = %19
  %22 = getelementptr inbounds %"class.std::vector.18", %"class.std::vector.18"* %20, i64 1
  %23 = icmp eq %"class.std::vector.18"* %22, %18
  br i1 %23, label %24, label %19

; <label>:24                                      ; preds = %21
  %25 = getelementptr inbounds %class.CSolver, %class.CSolver* %5, i32 0, i32 9
  invoke void @_ZNSt6vectorISt4pairIP9CVariableiESaIS3_EEC2Ev(%"class.std::vector.34"* %25)
          to label %26 unwind label %162

; <label>:26                                      ; preds = %24
  %27 = getelementptr inbounds %class.CSolver, %class.CSolver* %5, i32 0, i32 11
  invoke void @_ZNSt6vectorIiSaIiEEC2Ev(%"class.std::vector.18"* %27)
          to label %28 unwind label %166

; <label>:28                                      ; preds = %26
  %29 = getelementptr inbounds %class.CSolver, %class.CSolver* %5, i32 0, i32 12
  invoke void @_ZNSt6vectorIiSaIiEEC2Ev(%"class.std::vector.18"* %29)
          to label %30 unwind label %170

; <label>:30                                      ; preds = %28
  %31 = getelementptr inbounds %class.CSolver, %class.CSolver* %5, i32 0, i32 15
  %32 = getelementptr inbounds %class.CSolver, %class.CSolver* %5, i32 0, i32 1
  store i64 0, i64* %32, align 8
  %33 = invoke dereferenceable(4) i32* @_ZN7CSolver6dlevelEv(%class.CSolver* %5)
          to label %34 unwind label %174

; <label>:34                                      ; preds = %30
  store i32 0, i32* %33, align 4
  %35 = getelementptr inbounds %class.CSolver, %class.CSolver* %5, i32 0, i32 5
  %36 = getelementptr inbounds %struct.CSolverParameters, %struct.CSolverParameters* %35, i32 0, i32 0
  store float 1.728000e+05, float* %36, align 8
  %37 = getelementptr inbounds %class.CSolver, %class.CSolver* %5, i32 0, i32 5
  %38 = getelementptr inbounds %struct.CSolverParameters, %struct.CSolverParameters* %37, i32 0, i32 1
  store i32 0, i32* %38, align 4
  %39 = getelementptr inbounds %class.CSolver, %class.CSolver* %5, i32 0, i32 5
  %40 = getelementptr inbounds %struct.CSolverParameters, %struct.CSolverParameters* %39, i32 0, i32 2
  store i32 0, i32* %40, align 8
  %41 = getelementptr inbounds %class.CSolver, %class.CSolver* %5, i32 0, i32 5
  %42 = getelementptr inbounds %struct.CSolverParameters, %struct.CSolverParameters* %41, i32 0, i32 3
  store i8 0, i8* %42, align 4
  %43 = getelementptr inbounds %class.CSolver, %class.CSolver* %5, i32 0, i32 5
  %44 = getelementptr inbounds %struct.CSolverParameters, %struct.CSolverParameters* %43, i32 0, i32 4
  store i32 5000, i32* %44, align 8
  %45 = getelementptr inbounds %class.CSolver, %class.CSolver* %5, i32 0, i32 5
  %46 = getelementptr inbounds %struct.CSolverParameters, %struct.CSolverParameters* %45, i32 0, i32 5
  store i32 20, i32* %46, align 4
  %47 = getelementptr inbounds %class.CSolver, %class.CSolver* %5, i32 0, i32 5
  %48 = getelementptr inbounds %struct.CSolverParameters, %struct.CSolverParameters* %47, i32 0, i32 6
  store i32 100, i32* %48, align 8
  %49 = getelementptr inbounds %class.CSolver, %class.CSolver* %5, i32 0, i32 5
  %50 = getelementptr inbounds %struct.CSolverParameters, %struct.CSolverParameters* %49, i32 0, i32 7
  store i32 5000, i32* %50, align 4
  %51 = getelementptr inbounds %class.CSolver, %class.CSolver* %5, i32 0, i32 5
  %52 = getelementptr inbounds %struct.CSolverParameters, %struct.CSolverParameters* %51, i32 0, i32 8
  store i32 32, i32* %52, align 8
  %53 = getelementptr inbounds %class.CSolver, %class.CSolver* %5, i32 0, i32 5
  %54 = getelementptr inbounds %struct.CSolverParameters, %struct.CSolverParameters* %53, i32 0, i32 10
  store i32 0, i32* %54, align 8
  %55 = getelementptr inbounds %class.CSolver, %class.CSolver* %5, i32 0, i32 5
  %56 = getelementptr inbounds %struct.CSolverParameters, %struct.CSolverParameters* %55, i32 0, i32 9
  store i32 0, i32* %56, align 4
  %57 = getelementptr inbounds %class.CSolver, %class.CSolver* %5, i32 0, i32 5
  %58 = getelementptr inbounds %struct.CSolverParameters, %struct.CSolverParameters* %57, i32 0, i32 20
  store i8 1, i8* %58, align 8
  %59 = getelementptr inbounds %class.CSolver, %class.CSolver* %5, i32 0, i32 5
  %60 = getelementptr inbounds %struct.CSolverParameters, %struct.CSolverParameters* %59, i32 0, i32 22
  store i8 0, i8* %60, align 8
  %61 = getelementptr inbounds %class.CSolver, %class.CSolver* %5, i32 0, i32 5
  %62 = getelementptr inbounds %struct.CSolverParameters, %struct.CSolverParameters* %61, i32 0, i32 23
  store i8 0, i8* %62, align 1
  %63 = getelementptr inbounds %class.CSolver, %class.CSolver* %5, i32 0, i32 5
  %64 = getelementptr inbounds %struct.CSolverParameters, %struct.CSolverParameters* %63, i32 0, i32 11
  store i8 0, i8* %64, align 4
  %65 = getelementptr inbounds %class.CSolver, %class.CSolver* %5, i32 0, i32 5
  %66 = getelementptr inbounds %struct.CSolverParameters, %struct.CSolverParameters* %65, i32 0, i32 12
  store float 5.000000e+01, float* %66, align 8
  %67 = getelementptr inbounds %class.CSolver, %class.CSolver* %5, i32 0, i32 5
  %68 = getelementptr inbounds %struct.CSolverParameters, %struct.CSolverParameters* %67, i32 0, i32 13
  store float 0.000000e+00, float* %68, align 4
  %69 = getelementptr inbounds %class.CSolver, %class.CSolver* %5, i32 0, i32 5
  %70 = getelementptr inbounds %struct.CSolverParameters, %struct.CSolverParameters* %69, i32 0, i32 14
  store float 0.000000e+00, float* %70, align 8
  %71 = getelementptr inbounds %class.CSolver, %class.CSolver* %5, i32 0, i32 5
  %72 = getelementptr inbounds %struct.CSolverParameters, %struct.CSolverParameters* %71, i32 0, i32 15
  store i32 0, i32* %72, align 4
  %73 = getelementptr inbounds %class.CSolver, %class.CSolver* %5, i32 0, i32 5
  %74 = getelementptr inbounds %struct.CSolverParameters, %struct.CSolverParameters* %73, i32 0, i32 16
  store i32 40000, i32* %74, align 8
  %75 = getelementptr inbounds %class.CSolver, %class.CSolver* %5, i32 0, i32 5
  %76 = getelementptr inbounds %struct.CSolverParameters, %struct.CSolverParameters* %75, i32 0, i32 17
  store i32 100, i32* %76, align 4
  %77 = getelementptr inbounds %class.CSolver, %class.CSolver* %5, i32 0, i32 5
  %78 = getelementptr inbounds %struct.CSolverParameters, %struct.CSolverParameters* %77, i32 0, i32 18
  store i32 0, i32* %78, align 8
  %79 = getelementptr inbounds %class.CSolver, %class.CSolver* %5, i32 0, i32 5
  %80 = getelementptr inbounds %struct.CSolverParameters, %struct.CSolverParameters* %79, i32 0, i32 19
  store i32 0, i32* %80, align 4
  %81 = getelementptr inbounds %class.CSolver, %class.CSolver* %5, i32 0, i32 5
  %82 = getelementptr inbounds %struct.CSolverParameters, %struct.CSolverParameters* %81, i32 0, i32 10
  store i32 0, i32* %82, align 8
  %83 = getelementptr inbounds %class.CSolver, %class.CSolver* %5, i32 0, i32 15
  %84 = getelementptr inbounds %struct.CSolverStats, %struct.CSolverStats* %83, i32 0, i32 0
  store i8 0, i8* %84, align 8
  %85 = getelementptr inbounds %class.CSolver, %class.CSolver* %5, i32 0, i32 15
  %86 = getelementptr inbounds %struct.CSolverStats, %struct.CSolverStats* %85, i32 0, i32 1
  store i32 -1, i32* %86, align 4
  %87 = getelementptr inbounds %class.CSolver, %class.CSolver* %5, i32 0, i32 15
  %88 = getelementptr inbounds %struct.CSolverStats, %struct.CSolverStats* %87, i32 0, i32 2
  store i8 0, i8* %88, align 8
  %89 = getelementptr inbounds %class.CSolver, %class.CSolver* %5, i32 0, i32 15
  %90 = getelementptr inbounds %struct.CSolverStats, %struct.CSolverStats* %89, i32 0, i32 3
  store i64 0, i64* %90, align 8
  %91 = getelementptr inbounds %class.CSolver, %class.CSolver* %5, i32 0, i32 15
  %92 = getelementptr inbounds %struct.CSolverStats, %struct.CSolverStats* %91, i32 0, i32 5
  store i64 0, i64* %92, align 8
  %93 = getelementptr inbounds %class.CSolver, %class.CSolver* %5, i32 0, i32 15
  %94 = getelementptr inbounds %struct.CSolverStats, %struct.CSolverStats* %93, i32 0, i32 4
  store i64 0, i64* %94, align 8
  %95 = getelementptr inbounds %class.CSolver, %class.CSolver* %5, i32 0, i32 15
  %96 = getelementptr inbounds %struct.CSolverStats, %struct.CSolverStats* %95, i32 0, i32 6
  store i64 0, i64* %96, align 8
  %97 = getelementptr inbounds %class.CSolver, %class.CSolver* %5, i32 0, i32 15
  %98 = getelementptr inbounds %struct.CSolverStats, %struct.CSolverStats* %97, i32 0, i32 7
  store i64 0, i64* %98, align 8
  %99 = getelementptr inbounds %class.CSolver, %class.CSolver* %5, i32 0, i32 15
  %100 = getelementptr inbounds %struct.CSolverStats, %struct.CSolverStats* %99, i32 0, i32 9
  store i32 0, i32* %100, align 8
  %101 = getelementptr inbounds %class.CSolver, %class.CSolver* %5, i32 0, i32 15
  %102 = getelementptr inbounds %struct.CSolverStats, %struct.CSolverStats* %101, i32 0, i32 10
  store i32 0, i32* %102, align 4
  %103 = getelementptr inbounds %class.CSolver, %class.CSolver* %5, i32 0, i32 15
  %104 = getelementptr inbounds %struct.CSolverStats, %struct.CSolverStats* %103, i32 0, i32 11
  store i32 0, i32* %104, align 8
  %105 = getelementptr inbounds %class.CSolver, %class.CSolver* %5, i32 0, i32 15
  %106 = getelementptr inbounds %struct.CSolverStats, %struct.CSolverStats* %105, i32 0, i32 12
  store i32 0, i32* %106, align 4
  %107 = getelementptr inbounds %class.CSolver, %class.CSolver* %5, i32 0, i32 10
  store i32 0, i32* %107, align 8
  %108 = getelementptr inbounds %class.CSolver, %class.CSolver* %5, i32 0, i32 2
  store i32 0, i32* %108, align 8
  %109 = getelementptr inbounds %class.CSolver, %class.CSolver* %5, i32 0, i32 15
  %110 = getelementptr inbounds %struct.CSolverStats, %struct.CSolverStats* %109, i32 0, i32 8
  store i64 0, i64* %110, align 8
  %111 = getelementptr inbounds %class.CSolver, %class.CSolver* %5, i32 0, i32 14
  store i32 -1, i32* %111, align 8
  %112 = getelementptr inbounds %class.CSolver, %class.CSolver* %5, i32 0, i32 5
  %113 = getelementptr inbounds %struct.CSolverParameters, %struct.CSolverParameters* %112, i32 0, i32 24
  store i8 0, i8* %113, align 2
  %114 = getelementptr inbounds %class.CSolver, %class.CSolver* %5, i32 0, i32 5
  %115 = getelementptr inbounds %struct.CSolverParameters, %struct.CSolverParameters* %114, i32 0, i32 26
  store %class.Assignment* null, %class.Assignment** %115, align 8
  %116 = getelementptr inbounds %class.CSolver, %class.CSolver* %5, i32 0, i32 5
  %117 = getelementptr inbounds %struct.CSolverParameters, %struct.CSolverParameters* %116, i32 0, i32 28
  store i32 1, i32* %117, align 8
  %118 = getelementptr inbounds %class.CSolver, %class.CSolver* %5, i32 0, i32 5
  %119 = getelementptr inbounds %struct.CSolverParameters, %struct.CSolverParameters* %118, i32 0, i32 29
  store i32 0, i32* %119, align 4
  %120 = getelementptr inbounds %class.CSolver, %class.CSolver* %5, i32 0, i32 5
  %121 = getelementptr inbounds %struct.CSolverParameters, %struct.CSolverParameters* %120, i32 0, i32 30
  store i32 0, i32* %121, align 8
  %122 = getelementptr inbounds %class.CSolver, %class.CSolver* %5, i32 0, i32 5
  %123 = getelementptr inbounds %struct.CSolverParameters, %struct.CSolverParameters* %122, i32 0, i32 31
  store i32 0, i32* %123, align 4
  %124 = getelementptr inbounds %class.CSolver, %class.CSolver* %5, i32 0, i32 5
  %125 = getelementptr inbounds %struct.CSolverParameters, %struct.CSolverParameters* %124, i32 0, i32 32
  store i32 0, i32* %125, align 8
  %126 = getelementptr inbounds %class.CSolver, %class.CSolver* %5, i32 0, i32 5
  %127 = getelementptr inbounds %struct.CSolverParameters, %struct.CSolverParameters* %126, i32 0, i32 33
  store i32 0, i32* %127, align 4
  %128 = getelementptr inbounds %class.CSolver, %class.CSolver* %5, i32 0, i32 5
  %129 = getelementptr inbounds %struct.CSolverParameters, %struct.CSolverParameters* %128, i32 0, i32 35
  store i8 0, i8* %129, align 4
  %130 = getelementptr inbounds %class.CSolver, %class.CSolver* %5, i32 0, i32 5
  %131 = getelementptr inbounds %struct.CSolverParameters, %struct.CSolverParameters* %130, i32 0, i32 34
  store i32 0, i32* %131, align 8
  %132 = getelementptr inbounds %class.CSolver, %class.CSolver* %5, i32 0, i32 5
  %133 = getelementptr inbounds %struct.CSolverParameters, %struct.CSolverParameters* %132, i32 0, i32 36
  store i8 1, i8* %133, align 1
  ret void

; <label>:134                                     ; preds = %0
  %135 = landingpad { i8*, i32 }
          cleanup
  %136 = extractvalue { i8*, i32 } %135, 0
  store i8* %136, i8** %2, align 8
  %137 = extractvalue { i8*, i32 } %135, 1
  store i32 %137, i32* %3, align 4
  br label %198

; <label>:138                                     ; preds = %11, %8
  %139 = landingpad { i8*, i32 }
          cleanup
  %140 = extractvalue { i8*, i32 } %139, 0
  store i8* %140, i8** %2, align 8
  %141 = extractvalue { i8*, i32 } %139, 1
  store i32 %141, i32* %3, align 4
  br label %196

; <label>:142                                     ; preds = %10
  %143 = landingpad { i8*, i32 }
          cleanup
  %144 = extractvalue { i8*, i32 } %143, 0
  store i8* %144, i8** %2, align 8
  %145 = extractvalue { i8*, i32 } %143, 1
  store i32 %145, i32* %3, align 4
  invoke void @_ZNSt5dequeISt4pairIiiESaIS1_EED2Ev(%"class.std::deque.21"* %4)
          to label %146 unwind label %206

; <label>:146                                     ; preds = %142
  br label %196

; <label>:147                                     ; preds = %12
  %148 = landingpad { i8*, i32 }
          cleanup
  %149 = extractvalue { i8*, i32 } %148, 0
  store i8* %149, i8** %2, align 8
  %150 = extractvalue { i8*, i32 } %148, 1
  store i32 %150, i32* %3, align 4
  br label %194

; <label>:151                                     ; preds = %19
  %152 = landingpad { i8*, i32 }
          cleanup
  %153 = extractvalue { i8*, i32 } %152, 0
  store i8* %153, i8** %2, align 8
  %154 = extractvalue { i8*, i32 } %152, 1
  store i32 %154, i32* %3, align 4
  %155 = icmp eq %"class.std::vector.18"* %17, %20
  br i1 %155, label %161, label %156

; <label>:156                                     ; preds = %159, %151
  %157 = phi %"class.std::vector.18"* [ %20, %151 ], [ %158, %159 ]
  %158 = getelementptr inbounds %"class.std::vector.18", %"class.std::vector.18"* %157, i64 -1
  invoke void @_ZNSt6vectorIiSaIiEED2Ev(%"class.std::vector.18"* %158)
          to label %159 unwind label %206

; <label>:159                                     ; preds = %156
  %160 = icmp eq %"class.std::vector.18"* %158, %17
  br i1 %160, label %161, label %156

; <label>:161                                     ; preds = %159, %151
  br label %192

; <label>:162                                     ; preds = %24
  %163 = landingpad { i8*, i32 }
          cleanup
  %164 = extractvalue { i8*, i32 } %163, 0
  store i8* %164, i8** %2, align 8
  %165 = extractvalue { i8*, i32 } %163, 1
  store i32 %165, i32* %3, align 4
  br label %183

; <label>:166                                     ; preds = %26
  %167 = landingpad { i8*, i32 }
          cleanup
  %168 = extractvalue { i8*, i32 } %167, 0
  store i8* %168, i8** %2, align 8
  %169 = extractvalue { i8*, i32 } %167, 1
  store i32 %169, i32* %3, align 4
  br label %181

; <label>:170                                     ; preds = %28
  %171 = landingpad { i8*, i32 }
          cleanup
  %172 = extractvalue { i8*, i32 } %171, 0
  store i8* %172, i8** %2, align 8
  %173 = extractvalue { i8*, i32 } %171, 1
  store i32 %173, i32* %3, align 4
  br label %179

; <label>:174                                     ; preds = %30
  %175 = landingpad { i8*, i32 }
          cleanup
  %176 = extractvalue { i8*, i32 } %175, 0
  store i8* %176, i8** %2, align 8
  %177 = extractvalue { i8*, i32 } %175, 1
  store i32 %177, i32* %3, align 4
  invoke void @_ZNSt6vectorIiSaIiEED2Ev(%"class.std::vector.18"* %29)
          to label %178 unwind label %206

; <label>:178                                     ; preds = %174
  br label %179

; <label>:179                                     ; preds = %178, %170
  invoke void @_ZNSt6vectorIiSaIiEED2Ev(%"class.std::vector.18"* %27)
          to label %180 unwind label %206

; <label>:180                                     ; preds = %179
  br label %181

; <label>:181                                     ; preds = %180, %166
  invoke void @_ZNSt6vectorISt4pairIP9CVariableiESaIS3_EED2Ev(%"class.std::vector.34"* %25)
          to label %182 unwind label %206

; <label>:182                                     ; preds = %181
  br label %183

; <label>:183                                     ; preds = %182, %162
  %184 = getelementptr inbounds [2 x %"class.std::vector.18"], [2 x %"class.std::vector.18"]* %16, i32 0, i32 0
  %185 = getelementptr inbounds %"class.std::vector.18", %"class.std::vector.18"* %184, i64 2
  br label %186

; <label>:186                                     ; preds = %189, %183
  %187 = phi %"class.std::vector.18"* [ %185, %183 ], [ %188, %189 ]
  %188 = getelementptr inbounds %"class.std::vector.18", %"class.std::vector.18"* %187, i64 -1
  invoke void @_ZNSt6vectorIiSaIiEED2Ev(%"class.std::vector.18"* %188)
          to label %189 unwind label %206

; <label>:189                                     ; preds = %186
  %190 = icmp eq %"class.std::vector.18"* %188, %184
  br i1 %190, label %191, label %186

; <label>:191                                     ; preds = %189
  br label %192

; <label>:192                                     ; preds = %191, %161
  invoke void @_ZNSt6vectorISt4pairIiS0_IPFvPvEiEESaIS5_EED2Ev(%"class.std::vector.27"* %14)
          to label %193 unwind label %206

; <label>:193                                     ; preds = %192
  br label %194

; <label>:194                                     ; preds = %193, %147
  invoke void @_ZNSt5queueISt4pairIiiESt5dequeIS1_SaIS1_EEED2Ev(%"class.std::queue.20"* %9)
          to label %195 unwind label %206

; <label>:195                                     ; preds = %194
  br label %196

; <label>:196                                     ; preds = %195, %146, %138
  invoke void @_ZNSt6vectorIPS_IiSaIiEESaIS2_EED2Ev(%"class.std::vector.13"* %7)
          to label %197 unwind label %206

; <label>:197                                     ; preds = %196
  br label %198

; <label>:198                                     ; preds = %197, %134
  %199 = bitcast %class.CSolver* %5 to %class.CDatabase*
  invoke void @_ZN9CDatabaseD2Ev(%class.CDatabase* %199)
          to label %200 unwind label %206

; <label>:200                                     ; preds = %198
  br label %201

; <label>:201                                     ; preds = %200
  %202 = load i8*, i8** %2, align 8
  %203 = load i32, i32* %3, align 4
  %204 = insertvalue { i8*, i32 } undef, i8* %202, 0
  %205 = insertvalue { i8*, i32 } %204, i32 %203, 1
  resume { i8*, i32 } %205

; <label>:206                                     ; preds = %198, %196, %194, %192, %186, %181, %179, %174, %156, %142
  %207 = landingpad { i8*, i32 }
          catch i8* null
  %208 = extractvalue { i8*, i32 } %207, 0
  call void @__clang_call_terminate(i8* %208) #13
  unreachable
}

declare void @_ZN9CDatabaseC2Ev(%class.CDatabase*) #1

; Function Attrs: uwtable
define linkonce_odr void @_ZNSt6vectorIPS_IiSaIiEESaIS2_EEC2Ev(%"class.std::vector.13"* %this) unnamed_addr #0 comdat align 2 {
  %1 = alloca %"class.std::vector.13"*, align 8
  store %"class.std::vector.13"* %this, %"class.std::vector.13"** %1, align 8
  %2 = load %"class.std::vector.13"*, %"class.std::vector.13"** %1, align 8
  %3 = bitcast %"class.std::vector.13"* %2 to %"struct.std::_Vector_base.14"*
  call void @_ZNSt12_Vector_baseIPSt6vectorIiSaIiEESaIS3_EEC2Ev(%"struct.std::_Vector_base.14"* %3)
  ret void
}

declare i32 @__gxx_personality_v0(...)

; Function Attrs: uwtable
define linkonce_odr void @_ZNSt5dequeISt4pairIiiESaIS1_EEC2Ev(%"class.std::deque.21"* %this) unnamed_addr #0 comdat align 2 {
  %1 = alloca %"class.std::deque.21"*, align 8
  store %"class.std::deque.21"* %this, %"class.std::deque.21"** %1, align 8
  %2 = load %"class.std::deque.21"*, %"class.std::deque.21"** %1, align 8
  %3 = bitcast %"class.std::deque.21"* %2 to %"class.std::_Deque_base.22"*
  call void @_ZNSt11_Deque_baseISt4pairIiiESaIS1_EEC2Ev(%"class.std::_Deque_base.22"* %3)
  ret void
}

; Function Attrs: uwtable
define linkonce_odr void @_ZNSt5queueISt4pairIiiESt5dequeIS1_SaIS1_EEEC2ERKS4_(%"class.std::queue.20"* %this, %"class.std::deque.21"* dereferenceable(80) %__c) unnamed_addr #0 comdat align 2 {
  %1 = alloca %"class.std::queue.20"*, align 8
  %2 = alloca %"class.std::deque.21"*, align 8
  store %"class.std::queue.20"* %this, %"class.std::queue.20"** %1, align 8
  store %"class.std::deque.21"* %__c, %"class.std::deque.21"** %2, align 8
  %3 = load %"class.std::queue.20"*, %"class.std::queue.20"** %1, align 8
  %4 = getelementptr inbounds %"class.std::queue.20", %"class.std::queue.20"* %3, i32 0, i32 0
  %5 = load %"class.std::deque.21"*, %"class.std::deque.21"** %2, align 8
  call void @_ZNSt5dequeISt4pairIiiESaIS1_EEC2ERKS3_(%"class.std::deque.21"* %4, %"class.std::deque.21"* dereferenceable(80) %5)
  ret void
}

; Function Attrs: uwtable
define linkonce_odr void @_ZNSt5dequeISt4pairIiiESaIS1_EED2Ev(%"class.std::deque.21"* %this) unnamed_addr #0 comdat align 2 personality i8* bitcast (i32 (...)* @__gxx_personality_v0 to i8*) {
  %1 = alloca %"class.std::deque.21"*, align 8
  %2 = alloca %"struct.std::_Deque_iterator.26", align 8
  %3 = alloca i8*
  %4 = alloca i32
  %5 = alloca %"struct.std::_Deque_iterator.26", align 8
  store %"class.std::deque.21"* %this, %"class.std::deque.21"** %1, align 8
  %6 = load %"class.std::deque.21"*, %"class.std::deque.21"** %1, align 8
  invoke void @_ZNSt5dequeISt4pairIiiESaIS1_EE5beginEv(%"struct.std::_Deque_iterator.26"* sret %2, %"class.std::deque.21"* %6)
          to label %7 unwind label %14

; <label>:7                                       ; preds = %0
  invoke void @_ZNSt5dequeISt4pairIiiESaIS1_EE3endEv(%"struct.std::_Deque_iterator.26"* sret %5, %"class.std::deque.21"* %6)
          to label %8 unwind label %14

; <label>:8                                       ; preds = %7
  %9 = bitcast %"class.std::deque.21"* %6 to %"class.std::_Deque_base.22"*
  %10 = invoke dereferenceable(1) %"class.std::allocator.23"* @_ZNSt11_Deque_baseISt4pairIiiESaIS1_EE19_M_get_Tp_allocatorEv(%"class.std::_Deque_base.22"* %9)
          to label %11 unwind label %14

; <label>:11                                      ; preds = %8
  invoke void @_ZNSt5dequeISt4pairIiiESaIS1_EE15_M_destroy_dataESt15_Deque_iteratorIS1_RS1_PS1_ES7_RKS2_(%"class.std::deque.21"* %6, %"struct.std::_Deque_iterator.26"* %2, %"struct.std::_Deque_iterator.26"* %5, %"class.std::allocator.23"* dereferenceable(1) %10)
          to label %12 unwind label %14

; <label>:12                                      ; preds = %11
  %13 = bitcast %"class.std::deque.21"* %6 to %"class.std::_Deque_base.22"*
  call void @_ZNSt11_Deque_baseISt4pairIiiESaIS1_EED2Ev(%"class.std::_Deque_base.22"* %13)
  ret void

; <label>:14                                      ; preds = %11, %8, %7, %0
  %15 = landingpad { i8*, i32 }
          cleanup
  %16 = extractvalue { i8*, i32 } %15, 0
  store i8* %16, i8** %3, align 8
  %17 = extractvalue { i8*, i32 } %15, 1
  store i32 %17, i32* %4, align 4
  %18 = bitcast %"class.std::deque.21"* %6 to %"class.std::_Deque_base.22"*
  invoke void @_ZNSt11_Deque_baseISt4pairIiiESaIS1_EED2Ev(%"class.std::_Deque_base.22"* %18)
          to label %19 unwind label %25

; <label>:19                                      ; preds = %14
  br label %20

; <label>:20                                      ; preds = %19
  %21 = load i8*, i8** %3, align 8
  %22 = load i32, i32* %4, align 4
  %23 = insertvalue { i8*, i32 } undef, i8* %21, 0
  %24 = insertvalue { i8*, i32 } %23, i32 %22, 1
  resume { i8*, i32 } %24

; <label>:25                                      ; preds = %14
  %26 = landingpad { i8*, i32 }
          catch i8* null
  %27 = extractvalue { i8*, i32 } %26, 0
  call void @__clang_call_terminate(i8* %27) #13
  unreachable
}

; Function Attrs: noinline noreturn nounwind
define linkonce_odr hidden void @__clang_call_terminate(i8*) #3 comdat {
  %2 = call i8* @__cxa_begin_catch(i8* %0) #2
  call void @_ZSt9terminatev() #13
  unreachable
}

declare i8* @__cxa_begin_catch(i8*)

declare void @_ZSt9terminatev()

; Function Attrs: uwtable
define linkonce_odr void @_ZNSt6vectorISt4pairIiS0_IPFvPvEiEESaIS5_EEC2Ev(%"class.std::vector.27"* %this) unnamed_addr #0 comdat align 2 {
  %1 = alloca %"class.std::vector.27"*, align 8
  store %"class.std::vector.27"* %this, %"class.std::vector.27"** %1, align 8
  %2 = load %"class.std::vector.27"*, %"class.std::vector.27"** %1, align 8
  %3 = bitcast %"class.std::vector.27"* %2 to %"struct.std::_Vector_base.28"*
  call void @_ZNSt12_Vector_baseISt4pairIiS0_IPFvPvEiEESaIS5_EEC2Ev(%"struct.std::_Vector_base.28"* %3)
  ret void
}

; Function Attrs: uwtable
define linkonce_odr void @_ZNSt6vectorIiSaIiEEC2Ev(%"class.std::vector.18"* %this) unnamed_addr #0 comdat align 2 {
  %1 = alloca %"class.std::vector.18"*, align 8
  store %"class.std::vector.18"* %this, %"class.std::vector.18"** %1, align 8
  %2 = load %"class.std::vector.18"*, %"class.std::vector.18"** %1, align 8
  %3 = bitcast %"class.std::vector.18"* %2 to %"struct.std::_Vector_base.19"*
  call void @_ZNSt12_Vector_baseIiSaIiEEC2Ev(%"struct.std::_Vector_base.19"* %3)
  ret void
}

; Function Attrs: uwtable
define linkonce_odr void @_ZNSt6vectorIiSaIiEED2Ev(%"class.std::vector.18"* %this) unnamed_addr #0 comdat align 2 personality i8* bitcast (i32 (...)* @__gxx_personality_v0 to i8*) {
  %1 = alloca %"class.std::vector.18"*, align 8
  %2 = alloca i8*
  %3 = alloca i32
  store %"class.std::vector.18"* %this, %"class.std::vector.18"** %1, align 8
  %4 = load %"class.std::vector.18"*, %"class.std::vector.18"** %1, align 8
  %5 = bitcast %"class.std::vector.18"* %4 to %"struct.std::_Vector_base.19"*
  %6 = getelementptr inbounds %"struct.std::_Vector_base.19", %"struct.std::_Vector_base.19"* %5, i32 0, i32 0
  %7 = getelementptr inbounds %"struct.std::_Vector_base<int, std::allocator<int> >::_Vector_impl", %"struct.std::_Vector_base<int, std::allocator<int> >::_Vector_impl"* %6, i32 0, i32 0
  %8 = load i32*, i32** %7, align 8
  %9 = bitcast %"class.std::vector.18"* %4 to %"struct.std::_Vector_base.19"*
  %10 = getelementptr inbounds %"struct.std::_Vector_base.19", %"struct.std::_Vector_base.19"* %9, i32 0, i32 0
  %11 = getelementptr inbounds %"struct.std::_Vector_base<int, std::allocator<int> >::_Vector_impl", %"struct.std::_Vector_base<int, std::allocator<int> >::_Vector_impl"* %10, i32 0, i32 1
  %12 = load i32*, i32** %11, align 8
  %13 = bitcast %"class.std::vector.18"* %4 to %"struct.std::_Vector_base.19"*
  %14 = invoke dereferenceable(1) %"class.std::allocator.10"* @_ZNSt12_Vector_baseIiSaIiEE19_M_get_Tp_allocatorEv(%"struct.std::_Vector_base.19"* %13)
          to label %15 unwind label %18

; <label>:15                                      ; preds = %0
  invoke void @_ZSt8_DestroyIPiiEvT_S1_RSaIT0_E(i32* %8, i32* %12, %"class.std::allocator.10"* dereferenceable(1) %14)
          to label %16 unwind label %18

; <label>:16                                      ; preds = %15
  %17 = bitcast %"class.std::vector.18"* %4 to %"struct.std::_Vector_base.19"*
  call void @_ZNSt12_Vector_baseIiSaIiEED2Ev(%"struct.std::_Vector_base.19"* %17)
  ret void

; <label>:18                                      ; preds = %15, %0
  %19 = landingpad { i8*, i32 }
          cleanup
  %20 = extractvalue { i8*, i32 } %19, 0
  store i8* %20, i8** %2, align 8
  %21 = extractvalue { i8*, i32 } %19, 1
  store i32 %21, i32* %3, align 4
  %22 = bitcast %"class.std::vector.18"* %4 to %"struct.std::_Vector_base.19"*
  invoke void @_ZNSt12_Vector_baseIiSaIiEED2Ev(%"struct.std::_Vector_base.19"* %22)
          to label %23 unwind label %29

; <label>:23                                      ; preds = %18
  br label %24

; <label>:24                                      ; preds = %23
  %25 = load i8*, i8** %2, align 8
  %26 = load i32, i32* %3, align 4
  %27 = insertvalue { i8*, i32 } undef, i8* %25, 0
  %28 = insertvalue { i8*, i32 } %27, i32 %26, 1
  resume { i8*, i32 } %28

; <label>:29                                      ; preds = %18
  %30 = landingpad { i8*, i32 }
          catch i8* null
  %31 = extractvalue { i8*, i32 } %30, 0
  call void @__clang_call_terminate(i8* %31) #13
  unreachable
}

; Function Attrs: uwtable
define linkonce_odr void @_ZNSt6vectorISt4pairIP9CVariableiESaIS3_EEC2Ev(%"class.std::vector.34"* %this) unnamed_addr #0 comdat align 2 {
  %1 = alloca %"class.std::vector.34"*, align 8
  store %"class.std::vector.34"* %this, %"class.std::vector.34"** %1, align 8
  %2 = load %"class.std::vector.34"*, %"class.std::vector.34"** %1, align 8
  %3 = bitcast %"class.std::vector.34"* %2 to %"struct.std::_Vector_base.35"*
  call void @_ZNSt12_Vector_baseISt4pairIP9CVariableiESaIS3_EEC2Ev(%"struct.std::_Vector_base.35"* %3)
  ret void
}

; Function Attrs: nounwind uwtable
define linkonce_odr dereferenceable(4) i32* @_ZN7CSolver6dlevelEv(%class.CSolver* %this) #4 comdat align 2 {
  %1 = alloca %class.CSolver*, align 8
  store %class.CSolver* %this, %class.CSolver** %1, align 8
  %2 = load %class.CSolver*, %class.CSolver** %1, align 8
  %3 = getelementptr inbounds %class.CSolver, %class.CSolver* %2, i32 0, i32 2
  ret i32* %3
}

; Function Attrs: uwtable
define linkonce_odr void @_ZNSt6vectorISt4pairIP9CVariableiESaIS3_EED2Ev(%"class.std::vector.34"* %this) unnamed_addr #0 comdat align 2 personality i8* bitcast (i32 (...)* @__gxx_personality_v0 to i8*) {
  %1 = alloca %"class.std::vector.34"*, align 8
  %2 = alloca i8*
  %3 = alloca i32
  store %"class.std::vector.34"* %this, %"class.std::vector.34"** %1, align 8
  %4 = load %"class.std::vector.34"*, %"class.std::vector.34"** %1, align 8
  %5 = bitcast %"class.std::vector.34"* %4 to %"struct.std::_Vector_base.35"*
  %6 = getelementptr inbounds %"struct.std::_Vector_base.35", %"struct.std::_Vector_base.35"* %5, i32 0, i32 0
  %7 = getelementptr inbounds %"struct.std::_Vector_base<std::pair<CVariable *, int>, std::allocator<std::pair<CVariable *, int> > >::_Vector_impl", %"struct.std::_Vector_base<std::pair<CVariable *, int>, std::allocator<std::pair<CVariable *, int> > >::_Vector_impl"* %6, i32 0, i32 0
  %8 = load %"struct.std::pair.39"*, %"struct.std::pair.39"** %7, align 8
  %9 = bitcast %"class.std::vector.34"* %4 to %"struct.std::_Vector_base.35"*
  %10 = getelementptr inbounds %"struct.std::_Vector_base.35", %"struct.std::_Vector_base.35"* %9, i32 0, i32 0
  %11 = getelementptr inbounds %"struct.std::_Vector_base<std::pair<CVariable *, int>, std::allocator<std::pair<CVariable *, int> > >::_Vector_impl", %"struct.std::_Vector_base<std::pair<CVariable *, int>, std::allocator<std::pair<CVariable *, int> > >::_Vector_impl"* %10, i32 0, i32 1
  %12 = load %"struct.std::pair.39"*, %"struct.std::pair.39"** %11, align 8
  %13 = bitcast %"class.std::vector.34"* %4 to %"struct.std::_Vector_base.35"*
  %14 = invoke dereferenceable(1) %"class.std::allocator.36"* @_ZNSt12_Vector_baseISt4pairIP9CVariableiESaIS3_EE19_M_get_Tp_allocatorEv(%"struct.std::_Vector_base.35"* %13)
          to label %15 unwind label %18

; <label>:15                                      ; preds = %0
  invoke void @_ZSt8_DestroyIPSt4pairIP9CVariableiES3_EvT_S5_RSaIT0_E(%"struct.std::pair.39"* %8, %"struct.std::pair.39"* %12, %"class.std::allocator.36"* dereferenceable(1) %14)
          to label %16 unwind label %18

; <label>:16                                      ; preds = %15
  %17 = bitcast %"class.std::vector.34"* %4 to %"struct.std::_Vector_base.35"*
  call void @_ZNSt12_Vector_baseISt4pairIP9CVariableiESaIS3_EED2Ev(%"struct.std::_Vector_base.35"* %17)
  ret void

; <label>:18                                      ; preds = %15, %0
  %19 = landingpad { i8*, i32 }
          cleanup
  %20 = extractvalue { i8*, i32 } %19, 0
  store i8* %20, i8** %2, align 8
  %21 = extractvalue { i8*, i32 } %19, 1
  store i32 %21, i32* %3, align 4
  %22 = bitcast %"class.std::vector.34"* %4 to %"struct.std::_Vector_base.35"*
  invoke void @_ZNSt12_Vector_baseISt4pairIP9CVariableiESaIS3_EED2Ev(%"struct.std::_Vector_base.35"* %22)
          to label %23 unwind label %29

; <label>:23                                      ; preds = %18
  br label %24

; <label>:24                                      ; preds = %23
  %25 = load i8*, i8** %2, align 8
  %26 = load i32, i32* %3, align 4
  %27 = insertvalue { i8*, i32 } undef, i8* %25, 0
  %28 = insertvalue { i8*, i32 } %27, i32 %26, 1
  resume { i8*, i32 } %28

; <label>:29                                      ; preds = %18
  %30 = landingpad { i8*, i32 }
          catch i8* null
  %31 = extractvalue { i8*, i32 } %30, 0
  call void @__clang_call_terminate(i8* %31) #13
  unreachable
}

; Function Attrs: uwtable
define linkonce_odr void @_ZNSt6vectorISt4pairIiS0_IPFvPvEiEESaIS5_EED2Ev(%"class.std::vector.27"* %this) unnamed_addr #0 comdat align 2 personality i8* bitcast (i32 (...)* @__gxx_personality_v0 to i8*) {
  %1 = alloca %"class.std::vector.27"*, align 8
  %2 = alloca i8*
  %3 = alloca i32
  store %"class.std::vector.27"* %this, %"class.std::vector.27"** %1, align 8
  %4 = load %"class.std::vector.27"*, %"class.std::vector.27"** %1, align 8
  %5 = bitcast %"class.std::vector.27"* %4 to %"struct.std::_Vector_base.28"*
  %6 = getelementptr inbounds %"struct.std::_Vector_base.28", %"struct.std::_Vector_base.28"* %5, i32 0, i32 0
  %7 = getelementptr inbounds %"struct.std::_Vector_base<std::pair<int, std::pair<void (*)(void *), int> >, std::allocator<std::pair<int, std::pair<void (*)(void *), int> > > >::_Vector_impl", %"struct.std::_Vector_base<std::pair<int, std::pair<void (*)(void *), int> >, std::allocator<std::pair<int, std::pair<void (*)(void *), int> > > >::_Vector_impl"* %6, i32 0, i32 0
  %8 = load %"struct.std::pair.32"*, %"struct.std::pair.32"** %7, align 8
  %9 = bitcast %"class.std::vector.27"* %4 to %"struct.std::_Vector_base.28"*
  %10 = getelementptr inbounds %"struct.std::_Vector_base.28", %"struct.std::_Vector_base.28"* %9, i32 0, i32 0
  %11 = getelementptr inbounds %"struct.std::_Vector_base<std::pair<int, std::pair<void (*)(void *), int> >, std::allocator<std::pair<int, std::pair<void (*)(void *), int> > > >::_Vector_impl", %"struct.std::_Vector_base<std::pair<int, std::pair<void (*)(void *), int> >, std::allocator<std::pair<int, std::pair<void (*)(void *), int> > > >::_Vector_impl"* %10, i32 0, i32 1
  %12 = load %"struct.std::pair.32"*, %"struct.std::pair.32"** %11, align 8
  %13 = bitcast %"class.std::vector.27"* %4 to %"struct.std::_Vector_base.28"*
  %14 = invoke dereferenceable(1) %"class.std::allocator.29"* @_ZNSt12_Vector_baseISt4pairIiS0_IPFvPvEiEESaIS5_EE19_M_get_Tp_allocatorEv(%"struct.std::_Vector_base.28"* %13)
          to label %15 unwind label %18

; <label>:15                                      ; preds = %0
  invoke void @_ZSt8_DestroyIPSt4pairIiS0_IPFvPvEiEES5_EvT_S7_RSaIT0_E(%"struct.std::pair.32"* %8, %"struct.std::pair.32"* %12, %"class.std::allocator.29"* dereferenceable(1) %14)
          to label %16 unwind label %18

; <label>:16                                      ; preds = %15
  %17 = bitcast %"class.std::vector.27"* %4 to %"struct.std::_Vector_base.28"*
  call void @_ZNSt12_Vector_baseISt4pairIiS0_IPFvPvEiEESaIS5_EED2Ev(%"struct.std::_Vector_base.28"* %17)
  ret void

; <label>:18                                      ; preds = %15, %0
  %19 = landingpad { i8*, i32 }
          cleanup
  %20 = extractvalue { i8*, i32 } %19, 0
  store i8* %20, i8** %2, align 8
  %21 = extractvalue { i8*, i32 } %19, 1
  store i32 %21, i32* %3, align 4
  %22 = bitcast %"class.std::vector.27"* %4 to %"struct.std::_Vector_base.28"*
  invoke void @_ZNSt12_Vector_baseISt4pairIiS0_IPFvPvEiEESaIS5_EED2Ev(%"struct.std::_Vector_base.28"* %22)
          to label %23 unwind label %29

; <label>:23                                      ; preds = %18
  br label %24

; <label>:24                                      ; preds = %23
  %25 = load i8*, i8** %2, align 8
  %26 = load i32, i32* %3, align 4
  %27 = insertvalue { i8*, i32 } undef, i8* %25, 0
  %28 = insertvalue { i8*, i32 } %27, i32 %26, 1
  resume { i8*, i32 } %28

; <label>:29                                      ; preds = %18
  %30 = landingpad { i8*, i32 }
          catch i8* null
  %31 = extractvalue { i8*, i32 } %30, 0
  call void @__clang_call_terminate(i8* %31) #13
  unreachable
}

; Function Attrs: inlinehint uwtable
define linkonce_odr void @_ZNSt5queueISt4pairIiiESt5dequeIS1_SaIS1_EEED2Ev(%"class.std::queue.20"* %this) unnamed_addr #5 comdat align 2 {
  %1 = alloca %"class.std::queue.20"*, align 8
  store %"class.std::queue.20"* %this, %"class.std::queue.20"** %1, align 8
  %2 = load %"class.std::queue.20"*, %"class.std::queue.20"** %1, align 8
  %3 = getelementptr inbounds %"class.std::queue.20", %"class.std::queue.20"* %2, i32 0, i32 0
  call void @_ZNSt5dequeISt4pairIiiESaIS1_EED2Ev(%"class.std::deque.21"* %3)
  ret void
}

; Function Attrs: uwtable
define linkonce_odr void @_ZNSt6vectorIPS_IiSaIiEESaIS2_EED2Ev(%"class.std::vector.13"* %this) unnamed_addr #0 comdat align 2 personality i8* bitcast (i32 (...)* @__gxx_personality_v0 to i8*) {
  %1 = alloca %"class.std::vector.13"*, align 8
  %2 = alloca i8*
  %3 = alloca i32
  store %"class.std::vector.13"* %this, %"class.std::vector.13"** %1, align 8
  %4 = load %"class.std::vector.13"*, %"class.std::vector.13"** %1, align 8
  %5 = bitcast %"class.std::vector.13"* %4 to %"struct.std::_Vector_base.14"*
  %6 = getelementptr inbounds %"struct.std::_Vector_base.14", %"struct.std::_Vector_base.14"* %5, i32 0, i32 0
  %7 = getelementptr inbounds %"struct.std::_Vector_base<std::vector<int, std::allocator<int> > *, std::allocator<std::vector<int, std::allocator<int> > *> >::_Vector_impl", %"struct.std::_Vector_base<std::vector<int, std::allocator<int> > *, std::allocator<std::vector<int, std::allocator<int> > *> >::_Vector_impl"* %6, i32 0, i32 0
  %8 = load %"class.std::vector.18"**, %"class.std::vector.18"*** %7, align 8
  %9 = bitcast %"class.std::vector.13"* %4 to %"struct.std::_Vector_base.14"*
  %10 = getelementptr inbounds %"struct.std::_Vector_base.14", %"struct.std::_Vector_base.14"* %9, i32 0, i32 0
  %11 = getelementptr inbounds %"struct.std::_Vector_base<std::vector<int, std::allocator<int> > *, std::allocator<std::vector<int, std::allocator<int> > *> >::_Vector_impl", %"struct.std::_Vector_base<std::vector<int, std::allocator<int> > *, std::allocator<std::vector<int, std::allocator<int> > *> >::_Vector_impl"* %10, i32 0, i32 1
  %12 = load %"class.std::vector.18"**, %"class.std::vector.18"*** %11, align 8
  %13 = bitcast %"class.std::vector.13"* %4 to %"struct.std::_Vector_base.14"*
  %14 = invoke dereferenceable(1) %"class.std::allocator.15"* @_ZNSt12_Vector_baseIPSt6vectorIiSaIiEESaIS3_EE19_M_get_Tp_allocatorEv(%"struct.std::_Vector_base.14"* %13)
          to label %15 unwind label %18

; <label>:15                                      ; preds = %0
  invoke void @_ZSt8_DestroyIPPSt6vectorIiSaIiEES3_EvT_S5_RSaIT0_E(%"class.std::vector.18"** %8, %"class.std::vector.18"** %12, %"class.std::allocator.15"* dereferenceable(1) %14)
          to label %16 unwind label %18

; <label>:16                                      ; preds = %15
  %17 = bitcast %"class.std::vector.13"* %4 to %"struct.std::_Vector_base.14"*
  call void @_ZNSt12_Vector_baseIPSt6vectorIiSaIiEESaIS3_EED2Ev(%"struct.std::_Vector_base.14"* %17)
  ret void

; <label>:18                                      ; preds = %15, %0
  %19 = landingpad { i8*, i32 }
          cleanup
  %20 = extractvalue { i8*, i32 } %19, 0
  store i8* %20, i8** %2, align 8
  %21 = extractvalue { i8*, i32 } %19, 1
  store i32 %21, i32* %3, align 4
  %22 = bitcast %"class.std::vector.13"* %4 to %"struct.std::_Vector_base.14"*
  invoke void @_ZNSt12_Vector_baseIPSt6vectorIiSaIiEESaIS3_EED2Ev(%"struct.std::_Vector_base.14"* %22)
          to label %23 unwind label %29

; <label>:23                                      ; preds = %18
  br label %24

; <label>:24                                      ; preds = %23
  %25 = load i8*, i8** %2, align 8
  %26 = load i32, i32* %3, align 4
  %27 = insertvalue { i8*, i32 } undef, i8* %25, 0
  %28 = insertvalue { i8*, i32 } %27, i32 %26, 1
  resume { i8*, i32 } %28

; <label>:29                                      ; preds = %18
  %30 = landingpad { i8*, i32 }
          catch i8* null
  %31 = extractvalue { i8*, i32 } %30, 0
  call void @__clang_call_terminate(i8* %31) #13
  unreachable
}

; Function Attrs: uwtable
define linkonce_odr void @_ZN9CDatabaseD2Ev(%class.CDatabase* %this) unnamed_addr #0 comdat align 2 personality i8* bitcast (i32 (...)* @__gxx_personality_v0 to i8*) {
  %1 = alloca %class.CDatabase*, align 8
  %2 = alloca i8*
  %3 = alloca i32
  store %class.CDatabase* %this, %class.CDatabase** %1, align 8
  %4 = load %class.CDatabase*, %class.CDatabase** %1, align 8
  %5 = getelementptr inbounds %class.CDatabase, %class.CDatabase* %4, i32 0, i32 1
  %6 = load %class.CLitPoolElement*, %class.CLitPoolElement** %5, align 8
  %7 = icmp eq %class.CLitPoolElement* %6, null
  br i1 %7, label %10, label %8

; <label>:8                                       ; preds = %0
  %9 = bitcast %class.CLitPoolElement* %6 to i8*
  call void @_ZdaPv(i8* %9) #14
  br label %10

; <label>:10                                      ; preds = %8, %0
  %11 = getelementptr inbounds %class.CDatabase, %class.CDatabase* %4, i32 0, i32 6
  invoke void @_ZNSt5queueIiSt5dequeIiSaIiEEED2Ev(%"class.std::queue"* %11)
          to label %12 unwind label %16

; <label>:12                                      ; preds = %10
  %13 = getelementptr inbounds %class.CDatabase, %class.CDatabase* %4, i32 0, i32 5
  invoke void @_ZNSt6vectorI7CClauseSaIS0_EED2Ev(%"class.std::vector.5"* %13)
          to label %14 unwind label %21

; <label>:14                                      ; preds = %12
  %15 = getelementptr inbounds %class.CDatabase, %class.CDatabase* %4, i32 0, i32 4
  call void @_ZNSt6vectorI9CVariableSaIS0_EED2Ev(%"class.std::vector"* %15)
  ret void

; <label>:16                                      ; preds = %10
  %17 = landingpad { i8*, i32 }
          cleanup
  %18 = extractvalue { i8*, i32 } %17, 0
  store i8* %18, i8** %2, align 8
  %19 = extractvalue { i8*, i32 } %17, 1
  store i32 %19, i32* %3, align 4
  %20 = getelementptr inbounds %class.CDatabase, %class.CDatabase* %4, i32 0, i32 5
  invoke void @_ZNSt6vectorI7CClauseSaIS0_EED2Ev(%"class.std::vector.5"* %20)
          to label %25 unwind label %34

; <label>:21                                      ; preds = %12
  %22 = landingpad { i8*, i32 }
          cleanup
  %23 = extractvalue { i8*, i32 } %22, 0
  store i8* %23, i8** %2, align 8
  %24 = extractvalue { i8*, i32 } %22, 1
  store i32 %24, i32* %3, align 4
  br label %26

; <label>:25                                      ; preds = %16
  br label %26

; <label>:26                                      ; preds = %25, %21
  %27 = getelementptr inbounds %class.CDatabase, %class.CDatabase* %4, i32 0, i32 4
  invoke void @_ZNSt6vectorI9CVariableSaIS0_EED2Ev(%"class.std::vector"* %27)
          to label %28 unwind label %34

; <label>:28                                      ; preds = %26
  br label %29

; <label>:29                                      ; preds = %28
  %30 = load i8*, i8** %2, align 8
  %31 = load i32, i32* %3, align 4
  %32 = insertvalue { i8*, i32 } undef, i8* %30, 0
  %33 = insertvalue { i8*, i32 } %32, i32 %31, 1
  resume { i8*, i32 } %33

; <label>:34                                      ; preds = %26, %16
  %35 = landingpad { i8*, i32 }
          catch i8* null
  %36 = extractvalue { i8*, i32 } %35, 0
  call void @__clang_call_terminate(i8* %36) #13
  unreachable
}

; Function Attrs: uwtable
define void @_ZN7CSolverD2Ev(%class.CSolver* %this) unnamed_addr #0 align 2 personality i8* bitcast (i32 (...)* @__gxx_personality_v0 to i8*) {
  %1 = alloca %class.CSolver*, align 8
  %i = alloca i32, align 4
  %2 = alloca i8*
  %3 = alloca i32
  store %class.CSolver* %this, %class.CSolver** %1, align 8
  %4 = load %class.CSolver*, %class.CSolver** %1, align 8
  store i32 0, i32* %i, align 4
  br label %5

; <label>:5                                       ; preds = %26, %0
  %6 = load i32, i32* %i, align 4
  %7 = sext i32 %6 to i64
  %8 = bitcast %class.CSolver* %4 to %class.CDatabase*
  %9 = invoke dereferenceable(24) %"class.std::vector"* @_ZN9CDatabase9variablesEv(%class.CDatabase* %8)
          to label %10 unwind label %29

; <label>:10                                      ; preds = %5
  %11 = invoke i64 @_ZNKSt6vectorI9CVariableSaIS0_EE4sizeEv(%"class.std::vector"* %9)
          to label %12 unwind label %29

; <label>:12                                      ; preds = %10
  %13 = icmp ult i64 %7, %11
  br i1 %13, label %14, label %38

; <label>:14                                      ; preds = %12
  %15 = getelementptr inbounds %class.CSolver, %class.CSolver* %4, i32 0, i32 3
  %16 = load i32, i32* %i, align 4
  %17 = sext i32 %16 to i64
  %18 = invoke dereferenceable(8) %"class.std::vector.18"** @_ZNSt6vectorIPS_IiSaIiEESaIS2_EEixEm(%"class.std::vector.13"* %15, i64 %17)
          to label %19 unwind label %29

; <label>:19                                      ; preds = %14
  %20 = load %"class.std::vector.18"*, %"class.std::vector.18"** %18, align 8
  %21 = icmp eq %"class.std::vector.18"* %20, null
  br i1 %21, label %25, label %22

; <label>:22                                      ; preds = %19
  invoke void @_ZNSt6vectorIiSaIiEED2Ev(%"class.std::vector.18"* %20)
          to label %23 unwind label %33

; <label>:23                                      ; preds = %22
  %24 = bitcast %"class.std::vector.18"* %20 to i8*
  call void @_ZdlPv(i8* %24) #14
  br label %25

; <label>:25                                      ; preds = %23, %19
  br label %26

; <label>:26                                      ; preds = %25
  %27 = load i32, i32* %i, align 4
  %28 = add nsw i32 %27, 1
  store i32 %28, i32* %i, align 4
  br label %5

; <label>:29                                      ; preds = %14, %10, %5
  %30 = landingpad { i8*, i32 }
          cleanup
  %31 = extractvalue { i8*, i32 } %30, 0
  store i8* %31, i8** %2, align 8
  %32 = extractvalue { i8*, i32 } %30, 1
  store i32 %32, i32* %3, align 4
  br label %65

; <label>:33                                      ; preds = %22
  %34 = landingpad { i8*, i32 }
          cleanup
  %35 = extractvalue { i8*, i32 } %34, 0
  store i8* %35, i8** %2, align 8
  %36 = extractvalue { i8*, i32 } %34, 1
  store i32 %36, i32* %3, align 4
  %37 = bitcast %"class.std::vector.18"* %20 to i8*
  call void @_ZdlPv(i8* %37) #14
  br label %65

; <label>:38                                      ; preds = %12
  %39 = getelementptr inbounds %class.CSolver, %class.CSolver* %4, i32 0, i32 12
  invoke void @_ZNSt6vectorIiSaIiEED2Ev(%"class.std::vector.18"* %39)
          to label %40 unwind label %61

; <label>:40                                      ; preds = %38
  %41 = getelementptr inbounds %class.CSolver, %class.CSolver* %4, i32 0, i32 11
  invoke void @_ZNSt6vectorIiSaIiEED2Ev(%"class.std::vector.18"* %41)
          to label %42 unwind label %68

; <label>:42                                      ; preds = %40
  %43 = getelementptr inbounds %class.CSolver, %class.CSolver* %4, i32 0, i32 9
  invoke void @_ZNSt6vectorISt4pairIP9CVariableiESaIS3_EED2Ev(%"class.std::vector.34"* %43)
          to label %44 unwind label %75

; <label>:44                                      ; preds = %42
  %45 = getelementptr inbounds %class.CSolver, %class.CSolver* %4, i32 0, i32 8
  %46 = getelementptr inbounds [2 x %"class.std::vector.18"], [2 x %"class.std::vector.18"]* %45, i32 0, i32 0
  %47 = getelementptr inbounds %"class.std::vector.18", %"class.std::vector.18"* %46, i64 2
  br label %48

; <label>:48                                      ; preds = %51, %44
  %49 = phi %"class.std::vector.18"* [ %47, %44 ], [ %50, %51 ]
  %50 = getelementptr inbounds %"class.std::vector.18", %"class.std::vector.18"* %49, i64 -1
  invoke void @_ZNSt6vectorIiSaIiEED2Ev(%"class.std::vector.18"* %50)
          to label %51 unwind label %82

; <label>:51                                      ; preds = %48
  %52 = icmp eq %"class.std::vector.18"* %50, %46
  br i1 %52, label %53, label %48

; <label>:53                                      ; preds = %51
  %54 = getelementptr inbounds %class.CSolver, %class.CSolver* %4, i32 0, i32 6
  invoke void @_ZNSt6vectorISt4pairIiS0_IPFvPvEiEESaIS5_EED2Ev(%"class.std::vector.27"* %54)
          to label %55 unwind label %103

; <label>:55                                      ; preds = %53
  %56 = getelementptr inbounds %class.CSolver, %class.CSolver* %4, i32 0, i32 4
  invoke void @_ZNSt5queueISt4pairIiiESt5dequeIS1_SaIS1_EEED2Ev(%"class.std::queue.20"* %56)
          to label %57 unwind label %110

; <label>:57                                      ; preds = %55
  %58 = getelementptr inbounds %class.CSolver, %class.CSolver* %4, i32 0, i32 3
  invoke void @_ZNSt6vectorIPS_IiSaIiEESaIS2_EED2Ev(%"class.std::vector.13"* %58)
          to label %59 unwind label %117

; <label>:59                                      ; preds = %57
  %60 = bitcast %class.CSolver* %4 to %class.CDatabase*
  call void @_ZN9CDatabaseD2Ev(%class.CDatabase* %60)
  ret void

; <label>:61                                      ; preds = %38
  %62 = landingpad { i8*, i32 }
          cleanup
  %63 = extractvalue { i8*, i32 } %62, 0
  store i8* %63, i8** %2, align 8
  %64 = extractvalue { i8*, i32 } %62, 1
  store i32 %64, i32* %3, align 4
  br label %72

; <label>:65                                      ; preds = %33, %29
  %66 = getelementptr inbounds %class.CSolver, %class.CSolver* %4, i32 0, i32 12
  invoke void @_ZNSt6vectorIiSaIiEED2Ev(%"class.std::vector.18"* %66)
          to label %67 unwind label %132

; <label>:67                                      ; preds = %65
  br label %72

; <label>:68                                      ; preds = %40
  %69 = landingpad { i8*, i32 }
          cleanup
  %70 = extractvalue { i8*, i32 } %69, 0
  store i8* %70, i8** %2, align 8
  %71 = extractvalue { i8*, i32 } %69, 1
  store i32 %71, i32* %3, align 4
  br label %79

; <label>:72                                      ; preds = %67, %61
  %73 = getelementptr inbounds %class.CSolver, %class.CSolver* %4, i32 0, i32 11
  invoke void @_ZNSt6vectorIiSaIiEED2Ev(%"class.std::vector.18"* %73)
          to label %74 unwind label %132

; <label>:74                                      ; preds = %72
  br label %79

; <label>:75                                      ; preds = %42
  %76 = landingpad { i8*, i32 }
          cleanup
  %77 = extractvalue { i8*, i32 } %76, 0
  store i8* %77, i8** %2, align 8
  %78 = extractvalue { i8*, i32 } %76, 1
  store i32 %78, i32* %3, align 4
  br label %93

; <label>:79                                      ; preds = %74, %68
  %80 = getelementptr inbounds %class.CSolver, %class.CSolver* %4, i32 0, i32 9
  invoke void @_ZNSt6vectorISt4pairIP9CVariableiESaIS3_EED2Ev(%"class.std::vector.34"* %80)
          to label %81 unwind label %132

; <label>:81                                      ; preds = %79
  br label %93

; <label>:82                                      ; preds = %48
  %83 = landingpad { i8*, i32 }
          cleanup
  %84 = extractvalue { i8*, i32 } %83, 0
  store i8* %84, i8** %2, align 8
  %85 = extractvalue { i8*, i32 } %83, 1
  store i32 %85, i32* %3, align 4
  %86 = icmp eq %"class.std::vector.18"* %46, %50
  br i1 %86, label %92, label %87

; <label>:87                                      ; preds = %90, %82
  %88 = phi %"class.std::vector.18"* [ %50, %82 ], [ %89, %90 ]
  %89 = getelementptr inbounds %"class.std::vector.18", %"class.std::vector.18"* %88, i64 -1
  invoke void @_ZNSt6vectorIiSaIiEED2Ev(%"class.std::vector.18"* %89)
          to label %90 unwind label %132

; <label>:90                                      ; preds = %87
  %91 = icmp eq %"class.std::vector.18"* %89, %46
  br i1 %91, label %92, label %87

; <label>:92                                      ; preds = %90, %82
  br label %107

; <label>:93                                      ; preds = %81, %75
  %94 = getelementptr inbounds %class.CSolver, %class.CSolver* %4, i32 0, i32 8
  %95 = getelementptr inbounds [2 x %"class.std::vector.18"], [2 x %"class.std::vector.18"]* %94, i32 0, i32 0
  %96 = getelementptr inbounds %"class.std::vector.18", %"class.std::vector.18"* %95, i64 2
  br label %97

; <label>:97                                      ; preds = %100, %93
  %98 = phi %"class.std::vector.18"* [ %96, %93 ], [ %99, %100 ]
  %99 = getelementptr inbounds %"class.std::vector.18", %"class.std::vector.18"* %98, i64 -1
  invoke void @_ZNSt6vectorIiSaIiEED2Ev(%"class.std::vector.18"* %99)
          to label %100 unwind label %132

; <label>:100                                     ; preds = %97
  %101 = icmp eq %"class.std::vector.18"* %99, %95
  br i1 %101, label %102, label %97

; <label>:102                                     ; preds = %100
  br label %107

; <label>:103                                     ; preds = %53
  %104 = landingpad { i8*, i32 }
          cleanup
  %105 = extractvalue { i8*, i32 } %104, 0
  store i8* %105, i8** %2, align 8
  %106 = extractvalue { i8*, i32 } %104, 1
  store i32 %106, i32* %3, align 4
  br label %114

; <label>:107                                     ; preds = %102, %92
  %108 = getelementptr inbounds %class.CSolver, %class.CSolver* %4, i32 0, i32 6
  invoke void @_ZNSt6vectorISt4pairIiS0_IPFvPvEiEESaIS5_EED2Ev(%"class.std::vector.27"* %108)
          to label %109 unwind label %132

; <label>:109                                     ; preds = %107
  br label %114

; <label>:110                                     ; preds = %55
  %111 = landingpad { i8*, i32 }
          cleanup
  %112 = extractvalue { i8*, i32 } %111, 0
  store i8* %112, i8** %2, align 8
  %113 = extractvalue { i8*, i32 } %111, 1
  store i32 %113, i32* %3, align 4
  br label %121

; <label>:114                                     ; preds = %109, %103
  %115 = getelementptr inbounds %class.CSolver, %class.CSolver* %4, i32 0, i32 4
  invoke void @_ZNSt5queueISt4pairIiiESt5dequeIS1_SaIS1_EEED2Ev(%"class.std::queue.20"* %115)
          to label %116 unwind label %132

; <label>:116                                     ; preds = %114
  br label %121

; <label>:117                                     ; preds = %57
  %118 = landingpad { i8*, i32 }
          cleanup
  %119 = extractvalue { i8*, i32 } %118, 0
  store i8* %119, i8** %2, align 8
  %120 = extractvalue { i8*, i32 } %118, 1
  store i32 %120, i32* %3, align 4
  br label %124

; <label>:121                                     ; preds = %116, %110
  %122 = getelementptr inbounds %class.CSolver, %class.CSolver* %4, i32 0, i32 3
  invoke void @_ZNSt6vectorIPS_IiSaIiEESaIS2_EED2Ev(%"class.std::vector.13"* %122)
          to label %123 unwind label %132

; <label>:123                                     ; preds = %121
  br label %124

; <label>:124                                     ; preds = %123, %117
  %125 = bitcast %class.CSolver* %4 to %class.CDatabase*
  invoke void @_ZN9CDatabaseD2Ev(%class.CDatabase* %125)
          to label %126 unwind label %132

; <label>:126                                     ; preds = %124
  br label %127

; <label>:127                                     ; preds = %126
  %128 = load i8*, i8** %2, align 8
  %129 = load i32, i32* %3, align 4
  %130 = insertvalue { i8*, i32 } undef, i8* %128, 0
  %131 = insertvalue { i8*, i32 } %130, i32 %129, 1
  resume { i8*, i32 } %131

; <label>:132                                     ; preds = %124, %121, %114, %107, %97, %87, %79, %72, %65
  %133 = landingpad { i8*, i32 }
          catch i8* null
  %134 = extractvalue { i8*, i32 } %133, 0
  call void @__clang_call_terminate(i8* %134) #13
  unreachable
}

; Function Attrs: nounwind uwtable
define linkonce_odr dereferenceable(24) %"class.std::vector"* @_ZN9CDatabase9variablesEv(%class.CDatabase* %this) #4 comdat align 2 {
  %1 = alloca %class.CDatabase*, align 8
  store %class.CDatabase* %this, %class.CDatabase** %1, align 8
  %2 = load %class.CDatabase*, %class.CDatabase** %1, align 8
  %3 = getelementptr inbounds %class.CDatabase, %class.CDatabase* %2, i32 0, i32 4
  ret %"class.std::vector"* %3
}

; Function Attrs: nounwind uwtable
define linkonce_odr i64 @_ZNKSt6vectorI9CVariableSaIS0_EE4sizeEv(%"class.std::vector"* %this) #4 comdat align 2 {
  %1 = alloca %"class.std::vector"*, align 8
  store %"class.std::vector"* %this, %"class.std::vector"** %1, align 8
  %2 = load %"class.std::vector"*, %"class.std::vector"** %1, align 8
  %3 = bitcast %"class.std::vector"* %2 to %"struct.std::_Vector_base"*
  %4 = getelementptr inbounds %"struct.std::_Vector_base", %"struct.std::_Vector_base"* %3, i32 0, i32 0
  %5 = getelementptr inbounds %"struct.std::_Vector_base<CVariable, std::allocator<CVariable> >::_Vector_impl", %"struct.std::_Vector_base<CVariable, std::allocator<CVariable> >::_Vector_impl"* %4, i32 0, i32 1
  %6 = load %class.CVariable*, %class.CVariable** %5, align 8
  %7 = bitcast %"class.std::vector"* %2 to %"struct.std::_Vector_base"*
  %8 = getelementptr inbounds %"struct.std::_Vector_base", %"struct.std::_Vector_base"* %7, i32 0, i32 0
  %9 = getelementptr inbounds %"struct.std::_Vector_base<CVariable, std::allocator<CVariable> >::_Vector_impl", %"struct.std::_Vector_base<CVariable, std::allocator<CVariable> >::_Vector_impl"* %8, i32 0, i32 0
  %10 = load %class.CVariable*, %class.CVariable** %9, align 8
  %11 = ptrtoint %class.CVariable* %6 to i64
  %12 = ptrtoint %class.CVariable* %10 to i64
  %13 = sub i64 %11, %12
  %14 = sdiv exact i64 %13, 80
  ret i64 %14
}

; Function Attrs: nounwind uwtable
define linkonce_odr dereferenceable(8) %"class.std::vector.18"** @_ZNSt6vectorIPS_IiSaIiEESaIS2_EEixEm(%"class.std::vector.13"* %this, i64 %__n) #4 comdat align 2 {
  %1 = alloca %"class.std::vector.13"*, align 8
  %2 = alloca i64, align 8
  store %"class.std::vector.13"* %this, %"class.std::vector.13"** %1, align 8
  store i64 %__n, i64* %2, align 8
  %3 = load %"class.std::vector.13"*, %"class.std::vector.13"** %1, align 8
  %4 = bitcast %"class.std::vector.13"* %3 to %"struct.std::_Vector_base.14"*
  %5 = getelementptr inbounds %"struct.std::_Vector_base.14", %"struct.std::_Vector_base.14"* %4, i32 0, i32 0
  %6 = getelementptr inbounds %"struct.std::_Vector_base<std::vector<int, std::allocator<int> > *, std::allocator<std::vector<int, std::allocator<int> > *> >::_Vector_impl", %"struct.std::_Vector_base<std::vector<int, std::allocator<int> > *, std::allocator<std::vector<int, std::allocator<int> > *> >::_Vector_impl"* %5, i32 0, i32 0
  %7 = load %"class.std::vector.18"**, %"class.std::vector.18"*** %6, align 8
  %8 = load i64, i64* %2, align 8
  %9 = getelementptr inbounds %"class.std::vector.18"*, %"class.std::vector.18"** %7, i64 %8
  ret %"class.std::vector.18"** %9
}

; Function Attrs: nobuiltin nounwind
declare void @_ZdlPv(i8*) #6

; Function Attrs: uwtable
define void @_ZN7CSolver22run_periodic_functionsEv(%class.CSolver* %this) #0 align 2 {
  %1 = alloca %class.CSolver*, align 8
  %current = alloca float, align 4
  %i = alloca i32, align 4
  %hook = alloca %"struct.std::pair.32"*, align 8
  store %class.CSolver* %this, %class.CSolver** %1, align 8
  %2 = load %class.CSolver*, %class.CSolver** %1, align 8
  %3 = getelementptr inbounds %class.CSolver, %class.CSolver* %2, i32 0, i32 5
  %4 = getelementptr inbounds %struct.CSolverParameters, %struct.CSolverParameters* %3, i32 0, i32 3
  %5 = load i8, i8* %4, align 4
  %6 = trunc i8 %5 to i1
  br i1 %6, label %7, label %17

; <label>:7                                       ; preds = %0
  %8 = getelementptr inbounds %class.CSolver, %class.CSolver* %2, i32 0, i32 15
  %9 = getelementptr inbounds %struct.CSolverStats, %struct.CSolverStats* %8, i32 0, i32 10
  %10 = load i32, i32* %9, align 4
  %11 = getelementptr inbounds %class.CSolver, %class.CSolver* %2, i32 0, i32 5
  %12 = getelementptr inbounds %struct.CSolverParameters, %struct.CSolverParameters* %11, i32 0, i32 4
  %13 = load i32, i32* %12, align 8
  %14 = srem i32 %10, %13
  %15 = icmp eq i32 %14, 0
  br i1 %15, label %16, label %17

; <label>:16                                      ; preds = %7
  call void @_ZN7CSolver25delete_unrelevant_clausesEv(%class.CSolver* %2)
  br label %17

; <label>:17                                      ; preds = %16, %7, %0
  %18 = getelementptr inbounds %class.CSolver, %class.CSolver* %2, i32 0, i32 5
  %19 = getelementptr inbounds %struct.CSolverParameters, %struct.CSolverParameters* %18, i32 0, i32 11
  %20 = load i8, i8* %19, align 4
  %21 = trunc i8 %20 to i1
  br i1 %21, label %22, label %84

; <label>:22                                      ; preds = %17
  %23 = getelementptr inbounds %class.CSolver, %class.CSolver* %2, i32 0, i32 15
  %24 = getelementptr inbounds %struct.CSolverStats, %struct.CSolverStats* %23, i32 0, i32 10
  %25 = load i32, i32* %24, align 4
  %26 = getelementptr inbounds %class.CSolver, %class.CSolver* %2, i32 0, i32 5
  %27 = getelementptr inbounds %struct.CSolverParameters, %struct.CSolverParameters* %26, i32 0, i32 15
  %28 = load i32, i32* %27, align 4
  %29 = icmp sgt i32 %25, %28
  br i1 %29, label %30, label %84

; <label>:30                                      ; preds = %22
  %31 = getelementptr inbounds %class.CSolver, %class.CSolver* %2, i32 0, i32 5
  %32 = getelementptr inbounds %struct.CSolverParameters, %struct.CSolverParameters* %31, i32 0, i32 16
  %33 = load i32, i32* %32, align 8
  %34 = getelementptr inbounds %class.CSolver, %class.CSolver* %2, i32 0, i32 5
  %35 = getelementptr inbounds %struct.CSolverParameters, %struct.CSolverParameters* %34, i32 0, i32 15
  %36 = load i32, i32* %35, align 4
  %37 = add nsw i32 %36, %33
  store i32 %37, i32* %35, align 4
  %38 = getelementptr inbounds %class.CSolver, %class.CSolver* %2, i32 0, i32 5
  %39 = getelementptr inbounds %struct.CSolverParameters, %struct.CSolverParameters* %38, i32 0, i32 17
  %40 = load i32, i32* %39, align 4
  %41 = getelementptr inbounds %class.CSolver, %class.CSolver* %2, i32 0, i32 5
  %42 = getelementptr inbounds %struct.CSolverParameters, %struct.CSolverParameters* %41, i32 0, i32 16
  %43 = load i32, i32* %42, align 8
  %44 = add nsw i32 %43, %40
  store i32 %44, i32* %42, align 8
  %45 = call i32 @_ZN7CSolver16current_cpu_timeEv(%class.CSolver* %2)
  %46 = sdiv i32 %45, 1000
  %47 = sitofp i32 %46 to float
  store float %47, float* %current, align 4
  %48 = load float, float* %current, align 4
  %49 = getelementptr inbounds %class.CSolver, %class.CSolver* %2, i32 0, i32 5
  %50 = getelementptr inbounds %struct.CSolverParameters, %struct.CSolverParameters* %49, i32 0, i32 12
  %51 = load float, float* %50, align 8
  %52 = fcmp ogt float %48, %51
  br i1 %52, label %53, label %83

; <label>:53                                      ; preds = %30
  %54 = getelementptr inbounds %class.CSolver, %class.CSolver* %2, i32 0, i32 5
  %55 = getelementptr inbounds %struct.CSolverParameters, %struct.CSolverParameters* %54, i32 0, i32 9
  %56 = load i32, i32* %55, align 4
  %57 = icmp sgt i32 %56, 1
  br i1 %57, label %58, label %61

; <label>:58                                      ; preds = %53
  %59 = call dereferenceable(272) %"class.std::basic_ostream"* @_ZStlsISt11char_traitsIcEERSt13basic_ostreamIcT_ES5_PKc(%"class.std::basic_ostream"* dereferenceable(272) @_ZSt4cout, i8* getelementptr inbounds ([11 x i8], [11 x i8]* @.str, i32 0, i32 0))
  %60 = call dereferenceable(272) %"class.std::basic_ostream"* @_ZNSolsEPFRSoS_E(%"class.std::basic_ostream"* %59, %"class.std::basic_ostream"* (%"class.std::basic_ostream"*)* @_ZSt4endlIcSt11char_traitsIcEERSt13basic_ostreamIT_T0_ES6_)
  br label %61

; <label>:61                                      ; preds = %58, %53
  %62 = load float, float* %current, align 4
  %63 = getelementptr inbounds %class.CSolver, %class.CSolver* %2, i32 0, i32 5
  %64 = getelementptr inbounds %struct.CSolverParameters, %struct.CSolverParameters* %63, i32 0, i32 13
  %65 = load float, float* %64, align 4
  %66 = fadd float %62, %65
  %67 = getelementptr inbounds %class.CSolver, %class.CSolver* %2, i32 0, i32 5
  %68 = getelementptr inbounds %struct.CSolverParameters, %struct.CSolverParameters* %67, i32 0, i32 12
  store float %66, float* %68, align 8
  %69 = getelementptr inbounds %class.CSolver, %class.CSolver* %2, i32 0, i32 5
  %70 = getelementptr inbounds %struct.CSolverParameters, %struct.CSolverParameters* %69, i32 0, i32 14
  %71 = load float, float* %70, align 8
  %72 = getelementptr inbounds %class.CSolver, %class.CSolver* %2, i32 0, i32 5
  %73 = getelementptr inbounds %struct.CSolverParameters, %struct.CSolverParameters* %72, i32 0, i32 13
  %74 = load float, float* %73, align 4
  %75 = fadd float %74, %71
  store float %75, float* %73, align 4
  %76 = getelementptr inbounds %class.CSolver, %class.CSolver* %2, i32 0, i32 5
  %77 = getelementptr inbounds %struct.CSolverParameters, %struct.CSolverParameters* %76, i32 0, i32 18
  %78 = load i32, i32* %77, align 8
  %79 = getelementptr inbounds %class.CSolver, %class.CSolver* %2, i32 0, i32 5
  %80 = getelementptr inbounds %struct.CSolverParameters, %struct.CSolverParameters* %79, i32 0, i32 10
  store i32 %78, i32* %80, align 8
  %81 = call dereferenceable(272) %"class.std::basic_ostream"* @_ZStlsISt11char_traitsIcEERSt13basic_ostreamIcT_ES5_PKc(%"class.std::basic_ostream"* dereferenceable(272) @_ZSt4cerr, i8* getelementptr inbounds ([52 x i8], [52 x i8]* @.str.1, i32 0, i32 0))
  %82 = call dereferenceable(272) %"class.std::basic_ostream"* @_ZStlsISt11char_traitsIcEERSt13basic_ostreamIcT_ES5_PKc(%"class.std::basic_ostream"* dereferenceable(272) %81, i8* getelementptr inbounds ([37 x i8], [37 x i8]* @.str.2, i32 0, i32 0))
  call void @exit(i32 -1) #13
  unreachable

; <label>:83                                      ; preds = %30
  br label %84

; <label>:84                                      ; preds = %83, %22, %17
  %85 = getelementptr inbounds %class.CSolver, %class.CSolver* %2, i32 0, i32 15
  %86 = getelementptr inbounds %struct.CSolverStats, %struct.CSolverStats* %85, i32 0, i32 9
  %87 = load i32, i32* %86, align 8
  %88 = srem i32 %87, 255
  %89 = icmp eq i32 %88, 0
  br i1 %89, label %90, label %91

; <label>:90                                      ; preds = %84
  call void @_ZN7CSolver16update_var_statsEv(%class.CSolver* %2)
  br label %91

; <label>:91                                      ; preds = %90, %84
  store i32 0, i32* %i, align 4
  br label %92

; <label>:92                                      ; preds = %125, %91
  %93 = load i32, i32* %i, align 4
  %94 = sext i32 %93 to i64
  %95 = getelementptr inbounds %class.CSolver, %class.CSolver* %2, i32 0, i32 6
  %96 = call i64 @_ZNKSt6vectorISt4pairIiS0_IPFvPvEiEESaIS5_EE4sizeEv(%"class.std::vector.27"* %95)
  %97 = icmp ult i64 %94, %96
  br i1 %97, label %98, label %128

; <label>:98                                      ; preds = %92
  %99 = getelementptr inbounds %class.CSolver, %class.CSolver* %2, i32 0, i32 6
  %100 = load i32, i32* %i, align 4
  %101 = sext i32 %100 to i64
  %102 = call dereferenceable(24) %"struct.std::pair.32"* @_ZNSt6vectorISt4pairIiS0_IPFvPvEiEESaIS5_EEixEm(%"class.std::vector.27"* %99, i64 %101)
  store %"struct.std::pair.32"* %102, %"struct.std::pair.32"** %hook, align 8
  %103 = getelementptr inbounds %class.CSolver, %class.CSolver* %2, i32 0, i32 15
  %104 = getelementptr inbounds %struct.CSolverStats, %struct.CSolverStats* %103, i32 0, i32 9
  %105 = load i32, i32* %104, align 8
  %106 = load %"struct.std::pair.32"*, %"struct.std::pair.32"** %hook, align 8
  %107 = getelementptr inbounds %"struct.std::pair.32", %"struct.std::pair.32"* %106, i32 0, i32 0
  %108 = load i32, i32* %107, align 8
  %109 = icmp sge i32 %105, %108
  br i1 %109, label %110, label %124

; <label>:110                                     ; preds = %98
  %111 = load %"struct.std::pair.32"*, %"struct.std::pair.32"** %hook, align 8
  %112 = getelementptr inbounds %"struct.std::pair.32", %"struct.std::pair.32"* %111, i32 0, i32 2
  %113 = getelementptr inbounds %"struct.std::pair.33", %"struct.std::pair.33"* %112, i32 0, i32 1
  %114 = load i32, i32* %113, align 8
  %115 = load %"struct.std::pair.32"*, %"struct.std::pair.32"** %hook, align 8
  %116 = getelementptr inbounds %"struct.std::pair.32", %"struct.std::pair.32"* %115, i32 0, i32 0
  %117 = load i32, i32* %116, align 8
  %118 = add nsw i32 %117, %114
  store i32 %118, i32* %116, align 8
  %119 = load %"struct.std::pair.32"*, %"struct.std::pair.32"** %hook, align 8
  %120 = getelementptr inbounds %"struct.std::pair.32", %"struct.std::pair.32"* %119, i32 0, i32 2
  %121 = getelementptr inbounds %"struct.std::pair.33", %"struct.std::pair.33"* %120, i32 0, i32 0
  %122 = load void (i8*)*, void (i8*)** %121, align 8
  %123 = bitcast %class.CSolver* %2 to i8*
  call void %122(i8* %123)
  br label %124

; <label>:124                                     ; preds = %110, %98
  br label %125

; <label>:125                                     ; preds = %124
  %126 = load i32, i32* %i, align 4
  %127 = add nsw i32 %126, 1
  store i32 %127, i32* %i, align 4
  br label %92

; <label>:128                                     ; preds = %92
  ret void
}

; Function Attrs: uwtable
define void @_ZN7CSolver25delete_unrelevant_clausesEv(%class.CSolver* %this) #0 align 2 {
  %1 = alloca %class.CSolver*, align 8
  %original_num_deleted = alloca i32, align 4
  %original_del_lits = alloca i32, align 4
  %itr = alloca %"class.__gnu_cxx::__normal_iterator.42", align 8
  %2 = alloca %"class.__gnu_cxx::__normal_iterator.42", align 8
  %3 = alloca %"class.__gnu_cxx::__normal_iterator.42", align 8
  %cl = alloca %class.CClause*, align 8
  %lits = alloca %class.CLitPoolElement*, align 8
  %val_0_lits = alloca i32, align 4
  %val_1_lits = alloca i32, align 4
  %unknown_lits = alloca i32, align 4
  %i = alloca i32, align 4
  %lit_value = alloca i32, align 4
  %4 = alloca %class.CLitPoolElement, align 4
  %5 = alloca i32, align 4
  %6 = alloca %"class.__gnu_cxx::__normal_iterator.42", align 8
  %7 = alloca i32, align 4
  %8 = alloca %"class.__gnu_cxx::__normal_iterator.42", align 8
  %itr1 = alloca %"class.__gnu_cxx::__normal_iterator.43", align 8
  %9 = alloca %"class.__gnu_cxx::__normal_iterator.43", align 8
  %i2 = alloca i32, align 4
  %ht_ptr = alloca %"class.std::vector.0"*, align 8
  %my_itr = alloca %"class.__gnu_cxx::__normal_iterator", align 8
  %10 = alloca %"class.__gnu_cxx::__normal_iterator", align 8
  store %class.CSolver* %this, %class.CSolver** %1, align 8
  %11 = load %class.CSolver*, %class.CSolver** %1, align 8
  %12 = bitcast %class.CSolver* %11 to %class.CDatabase*
  %13 = call dereferenceable(4) i32* @_ZN9CDatabase19num_deleted_clausesEv(%class.CDatabase* %12)
  %14 = load i32, i32* %13, align 4
  store i32 %14, i32* %original_num_deleted, align 4
  %15 = bitcast %class.CSolver* %11 to %class.CDatabase*
  %16 = call dereferenceable(4) i32* @_ZN9CDatabase20num_deleted_literalsEv(%class.CDatabase* %15)
  %17 = load i32, i32* %16, align 4
  store i32 %17, i32* %original_del_lits, align 4
  %18 = bitcast %class.CSolver* %11 to %class.CDatabase*
  %19 = getelementptr inbounds %class.CDatabase, %class.CDatabase* %18, i32 0, i32 0
  %20 = getelementptr inbounds %struct.CDatabaseStats, %struct.CDatabaseStats* %19, i32 0, i32 1
  %21 = load i8, i8* %20, align 4
  %22 = trunc i8 %21 to i1
  br i1 %22, label %23, label %101

; <label>:23                                      ; preds = %0
  %24 = bitcast %class.CSolver* %11 to %class.CDatabase*
  %25 = getelementptr inbounds %class.CDatabase, %class.CDatabase* %24, i32 0, i32 0
  %26 = getelementptr inbounds %struct.CDatabaseStats, %struct.CDatabaseStats* %25, i32 0, i32 1
  store i8 0, i8* %26, align 4
  %27 = bitcast %class.CSolver* %11 to %class.CDatabase*
  %28 = getelementptr inbounds %class.CDatabase, %class.CDatabase* %27, i32 0, i32 0
  %29 = getelementptr inbounds %struct.CDatabaseStats, %struct.CDatabaseStats* %28, i32 0, i32 0
  %30 = load i32, i32* %29, align 8
  %31 = add nsw i32 %30, 1
  store i32 %31, i32* %29, align 8
  %32 = icmp slt i32 %31, 5
  br i1 %32, label %33, label %100

; <label>:33                                      ; preds = %23
  %34 = getelementptr inbounds %class.CSolver, %class.CSolver* %11, i32 0, i32 5
  %35 = getelementptr inbounds %struct.CSolverParameters, %struct.CSolverParameters* %34, i32 0, i32 5
  %36 = load i32, i32* %35, align 4
  %37 = sitofp i32 %36 to double
  %38 = fmul double %37, 8.000000e-01
  %39 = fptosi double %38 to i32
  %40 = getelementptr inbounds %class.CSolver, %class.CSolver* %11, i32 0, i32 5
  %41 = getelementptr inbounds %struct.CSolverParameters, %struct.CSolverParameters* %40, i32 0, i32 5
  store i32 %39, i32* %41, align 4
  %42 = getelementptr inbounds %class.CSolver, %class.CSolver* %11, i32 0, i32 5
  %43 = getelementptr inbounds %struct.CSolverParameters, %struct.CSolverParameters* %42, i32 0, i32 5
  %44 = load i32, i32* %43, align 4
  %45 = icmp slt i32 %44, 4
  br i1 %45, label %46, label %49

; <label>:46                                      ; preds = %33
  %47 = getelementptr inbounds %class.CSolver, %class.CSolver* %11, i32 0, i32 5
  %48 = getelementptr inbounds %struct.CSolverParameters, %struct.CSolverParameters* %47, i32 0, i32 5
  store i32 4, i32* %48, align 4
  br label %49

; <label>:49                                      ; preds = %46, %33
  %50 = getelementptr inbounds %class.CSolver, %class.CSolver* %11, i32 0, i32 5
  %51 = getelementptr inbounds %struct.CSolverParameters, %struct.CSolverParameters* %50, i32 0, i32 6
  %52 = load i32, i32* %51, align 8
  %53 = sitofp i32 %52 to double
  %54 = fmul double %53, 8.000000e-01
  %55 = fptosi double %54 to i32
  %56 = getelementptr inbounds %class.CSolver, %class.CSolver* %11, i32 0, i32 5
  %57 = getelementptr inbounds %struct.CSolverParameters, %struct.CSolverParameters* %56, i32 0, i32 6
  store i32 %55, i32* %57, align 8
  %58 = getelementptr inbounds %class.CSolver, %class.CSolver* %11, i32 0, i32 5
  %59 = getelementptr inbounds %struct.CSolverParameters, %struct.CSolverParameters* %58, i32 0, i32 6
  %60 = load i32, i32* %59, align 8
  %61 = icmp slt i32 %60, 10
  br i1 %61, label %62, label %65

; <label>:62                                      ; preds = %49
  %63 = getelementptr inbounds %class.CSolver, %class.CSolver* %11, i32 0, i32 5
  %64 = getelementptr inbounds %struct.CSolverParameters, %struct.CSolverParameters* %63, i32 0, i32 6
  store i32 10, i32* %64, align 8
  br label %65

; <label>:65                                      ; preds = %62, %49
  %66 = getelementptr inbounds %class.CSolver, %class.CSolver* %11, i32 0, i32 5
  %67 = getelementptr inbounds %struct.CSolverParameters, %struct.CSolverParameters* %66, i32 0, i32 7
  %68 = load i32, i32* %67, align 4
  %69 = sitofp i32 %68 to double
  %70 = fmul double %69, 8.000000e-01
  %71 = fptosi double %70 to i32
  %72 = getelementptr inbounds %class.CSolver, %class.CSolver* %11, i32 0, i32 5
  %73 = getelementptr inbounds %struct.CSolverParameters, %struct.CSolverParameters* %72, i32 0, i32 7
  store i32 %71, i32* %73, align 4
  %74 = getelementptr inbounds %class.CSolver, %class.CSolver* %11, i32 0, i32 5
  %75 = getelementptr inbounds %struct.CSolverParameters, %struct.CSolverParameters* %74, i32 0, i32 7
  %76 = load i32, i32* %75, align 4
  %77 = icmp slt i32 %76, 50
  br i1 %77, label %78, label %81

; <label>:78                                      ; preds = %65
  %79 = getelementptr inbounds %class.CSolver, %class.CSolver* %11, i32 0, i32 5
  %80 = getelementptr inbounds %struct.CSolverParameters, %struct.CSolverParameters* %79, i32 0, i32 7
  store i32 50, i32* %80, align 4
  br label %81

; <label>:81                                      ; preds = %78, %65
  %82 = call dereferenceable(272) %"class.std::basic_ostream"* @_ZStlsISt11char_traitsIcEERSt13basic_ostreamIcT_ES5_PKc(%"class.std::basic_ostream"* dereferenceable(272) @_ZSt4cout, i8* getelementptr inbounds ([50 x i8], [50 x i8]* @.str.16, i32 0, i32 0))
  %83 = call dereferenceable(272) %"class.std::basic_ostream"* @_ZNSolsEPFRSoS_E(%"class.std::basic_ostream"* %82, %"class.std::basic_ostream"* (%"class.std::basic_ostream"*)* @_ZSt4endlIcSt11char_traitsIcEERSt13basic_ostreamIT_T0_ES6_)
  %84 = call dereferenceable(272) %"class.std::basic_ostream"* @_ZStlsISt11char_traitsIcEERSt13basic_ostreamIcT_ES5_PKc(%"class.std::basic_ostream"* dereferenceable(272) @_ZSt4cout, i8* getelementptr inbounds ([11 x i8], [11 x i8]* @.str.17, i32 0, i32 0))
  %85 = getelementptr inbounds %class.CSolver, %class.CSolver* %11, i32 0, i32 5
  %86 = getelementptr inbounds %struct.CSolverParameters, %struct.CSolverParameters* %85, i32 0, i32 5
  %87 = load i32, i32* %86, align 4
  %88 = call dereferenceable(272) %"class.std::basic_ostream"* @_ZNSolsEi(%"class.std::basic_ostream"* %84, i32 %87)
  %89 = call dereferenceable(272) %"class.std::basic_ostream"* @_ZStlsISt11char_traitsIcEERSt13basic_ostreamIcT_ES5_PKc(%"class.std::basic_ostream"* dereferenceable(272) %88, i8* getelementptr inbounds ([14 x i8], [14 x i8]* @.str.18, i32 0, i32 0))
  %90 = getelementptr inbounds %class.CSolver, %class.CSolver* %11, i32 0, i32 5
  %91 = getelementptr inbounds %struct.CSolverParameters, %struct.CSolverParameters* %90, i32 0, i32 6
  %92 = load i32, i32* %91, align 8
  %93 = call dereferenceable(272) %"class.std::basic_ostream"* @_ZNSolsEi(%"class.std::basic_ostream"* %89, i32 %92)
  %94 = call dereferenceable(272) %"class.std::basic_ostream"* @_ZStlsISt11char_traitsIcEERSt13basic_ostreamIcT_ES5_PKc(%"class.std::basic_ostream"* dereferenceable(272) %93, i8* getelementptr inbounds ([14 x i8], [14 x i8]* @.str.19, i32 0, i32 0))
  %95 = getelementptr inbounds %class.CSolver, %class.CSolver* %11, i32 0, i32 5
  %96 = getelementptr inbounds %struct.CSolverParameters, %struct.CSolverParameters* %95, i32 0, i32 7
  %97 = load i32, i32* %96, align 4
  %98 = call dereferenceable(272) %"class.std::basic_ostream"* @_ZNSolsEi(%"class.std::basic_ostream"* %94, i32 %97)
  %99 = call dereferenceable(272) %"class.std::basic_ostream"* @_ZNSolsEPFRSoS_E(%"class.std::basic_ostream"* %98, %"class.std::basic_ostream"* (%"class.std::basic_ostream"*)* @_ZSt4endlIcSt11char_traitsIcEERSt13basic_ostreamIT_T0_ES6_)
  br label %100

; <label>:100                                     ; preds = %81, %23
  br label %101

; <label>:101                                     ; preds = %100, %0
  %102 = bitcast %class.CSolver* %11 to %class.CDatabase*
  %103 = call dereferenceable(24) %"class.std::vector.5"* @_ZN9CDatabase7clausesEv(%class.CDatabase* %102)
  %104 = call %class.CClause* @_ZNSt6vectorI7CClauseSaIS0_EE5beginEv(%"class.std::vector.5"* %103)
  %105 = getelementptr inbounds %"class.__gnu_cxx::__normal_iterator.42", %"class.__gnu_cxx::__normal_iterator.42"* %2, i32 0, i32 0
  store %class.CClause* %104, %class.CClause** %105, align 8
  %106 = bitcast %class.CSolver* %11 to %class.CDatabase*
  %107 = call dereferenceable(4) i32* @_ZN9CDatabase16init_num_clausesEv(%class.CDatabase* %106)
  %108 = load i32, i32* %107, align 4
  %109 = sext i32 %108 to i64
  %110 = call %class.CClause* @_ZNK9__gnu_cxx17__normal_iteratorIP7CClauseSt6vectorIS1_SaIS1_EEEplEl(%"class.__gnu_cxx::__normal_iterator.42"* %2, i64 %109)
  %111 = getelementptr inbounds %"class.__gnu_cxx::__normal_iterator.42", %"class.__gnu_cxx::__normal_iterator.42"* %itr, i32 0, i32 0
  store %class.CClause* %110, %class.CClause** %111, align 8
  br label %112

; <label>:112                                     ; preds = %223, %101
  %113 = bitcast %class.CSolver* %11 to %class.CDatabase*
  %114 = call dereferenceable(24) %"class.std::vector.5"* @_ZN9CDatabase7clausesEv(%class.CDatabase* %113)
  %115 = call %class.CClause* @_ZNSt6vectorI7CClauseSaIS0_EE3endEv(%"class.std::vector.5"* %114)
  %116 = getelementptr inbounds %"class.__gnu_cxx::__normal_iterator.42", %"class.__gnu_cxx::__normal_iterator.42"* %3, i32 0, i32 0
  store %class.CClause* %115, %class.CClause** %116, align 8
  %117 = call zeroext i1 @_ZN9__gnu_cxxneIP7CClauseSt6vectorIS1_SaIS1_EEEEbRKNS_17__normal_iteratorIT_T0_EESB_(%"class.__gnu_cxx::__normal_iterator.42"* dereferenceable(8) %itr, %"class.__gnu_cxx::__normal_iterator.42"* dereferenceable(8) %3)
  br i1 %117, label %118, label %225

; <label>:118                                     ; preds = %112
  %119 = call dereferenceable(16) %class.CClause* @_ZNK9__gnu_cxx17__normal_iteratorIP7CClauseSt6vectorIS1_SaIS1_EEEdeEv(%"class.__gnu_cxx::__normal_iterator.42"* %itr)
  store %class.CClause* %119, %class.CClause** %cl, align 8
  %120 = load %class.CClause*, %class.CClause** %cl, align 8
  %121 = call %class.CLitPoolElement* @_ZN7CClause8literalsEv(%class.CClause* %120)
  store %class.CLitPoolElement* %121, %class.CLitPoolElement** %lits, align 8
  %122 = load %class.CClause*, %class.CClause** %cl, align 8
  %123 = call dereferenceable(1) i8* @_ZN7CClause6in_useEv(%class.CClause* %122)
  %124 = load i8, i8* %123, align 1
  %125 = trunc i8 %124 to i1
  br i1 %125, label %126, label %134

; <label>:126                                     ; preds = %118
  %127 = load %class.CClause*, %class.CClause** %cl, align 8
  %128 = call dereferenceable(4) i32* @_ZN7CClause8num_litsEv(%class.CClause* %127)
  %129 = load i32, i32* %128, align 4
  %130 = getelementptr inbounds %class.CSolver, %class.CSolver* %11, i32 0, i32 5
  %131 = getelementptr inbounds %struct.CSolverParameters, %struct.CSolverParameters* %130, i32 0, i32 6
  %132 = load i32, i32* %131, align 8
  %133 = icmp slt i32 %129, %132
  br i1 %133, label %134, label %135

; <label>:134                                     ; preds = %126, %118
  br label %223

; <label>:135                                     ; preds = %126
  store i32 0, i32* %val_0_lits, align 4
  store i32 0, i32* %val_1_lits, align 4
  store i32 0, i32* %unknown_lits, align 4
  store i32 0, i32* %i, align 4
  br label %136

; <label>:136                                     ; preds = %219, %135
  %137 = load i32, i32* %i, align 4
  %138 = load %class.CClause*, %class.CClause** %cl, align 8
  %139 = call dereferenceable(4) i32* @_ZN7CClause8num_litsEv(%class.CClause* %138)
  %140 = load i32, i32* %139, align 4
  %141 = icmp slt i32 %137, %140
  br i1 %141, label %142, label %222

; <label>:142                                     ; preds = %136
  %143 = bitcast %class.CSolver* %11 to %class.CDatabase*
  %144 = load %class.CClause*, %class.CClause** %cl, align 8
  %145 = load i32, i32* %i, align 4
  %146 = call dereferenceable(4) %class.CLitPoolElement* @_ZN7CClause7literalEi(%class.CClause* %144, i32 %145)
  %147 = bitcast %class.CLitPoolElement* %4 to i8*
  %148 = bitcast %class.CLitPoolElement* %146 to i8*
  call void @llvm.memcpy.p0i8.p0i8.i64(i8* %147, i8* %148, i64 4, i32 4, i1 false)
  %149 = getelementptr inbounds %class.CLitPoolElement, %class.CLitPoolElement* %4, i32 0, i32 0
  %150 = load i32, i32* %149, align 4
  %151 = call i32 @_ZN9CDatabase13literal_valueE15CLitPoolElement(%class.CDatabase* %143, i32 %150)
  store i32 %151, i32* %lit_value, align 4
  %152 = load i32, i32* %lit_value, align 4
  %153 = icmp eq i32 %152, 0
  br i1 %153, label %154, label %157

; <label>:154                                     ; preds = %142
  %155 = load i32, i32* %val_0_lits, align 4
  %156 = add nsw i32 %155, 1
  store i32 %156, i32* %val_0_lits, align 4
  br label %167

; <label>:157                                     ; preds = %142
  %158 = load i32, i32* %lit_value, align 4
  %159 = icmp eq i32 %158, 1
  br i1 %159, label %160, label %163

; <label>:160                                     ; preds = %157
  %161 = load i32, i32* %val_1_lits, align 4
  %162 = add nsw i32 %161, 1
  store i32 %162, i32* %val_1_lits, align 4
  br label %166

; <label>:163                                     ; preds = %157
  %164 = load i32, i32* %unknown_lits, align 4
  %165 = add nsw i32 %164, 1
  store i32 %165, i32* %unknown_lits, align 4
  br label %166

; <label>:166                                     ; preds = %163, %160
  br label %167

; <label>:167                                     ; preds = %166, %154
  %168 = load i32, i32* %unknown_lits, align 4
  %169 = load i32, i32* %val_1_lits, align 4
  %170 = add nsw i32 %168, %169
  %171 = getelementptr inbounds %class.CSolver, %class.CSolver* %11, i32 0, i32 5
  %172 = getelementptr inbounds %struct.CSolverParameters, %struct.CSolverParameters* %171, i32 0, i32 5
  %173 = load i32, i32* %172, align 4
  %174 = icmp sgt i32 %170, %173
  br i1 %174, label %175, label %190

; <label>:175                                     ; preds = %167
  %176 = bitcast %class.CSolver* %11 to %class.CDatabase*
  %177 = load %class.CClause*, %class.CClause** %cl, align 8
  call void @_ZN9CDatabase19mark_clause_deletedER7CClause(%class.CDatabase* %176, %class.CClause* dereferenceable(16) %177)
  %178 = bitcast %class.CSolver* %11 to %class.CDatabase*
  %179 = getelementptr inbounds %class.CDatabase, %class.CDatabase* %178, i32 0, i32 6
  %180 = bitcast %class.CSolver* %11 to %class.CDatabase*
  %181 = call dereferenceable(24) %"class.std::vector.5"* @_ZN9CDatabase7clausesEv(%class.CDatabase* %180)
  %182 = call %class.CClause* @_ZNSt6vectorI7CClauseSaIS0_EE5beginEv(%"class.std::vector.5"* %181)
  %183 = getelementptr inbounds %"class.__gnu_cxx::__normal_iterator.42", %"class.__gnu_cxx::__normal_iterator.42"* %6, i32 0, i32 0
  store %class.CClause* %182, %class.CClause** %183, align 8
  %184 = call i64 @_ZN9__gnu_cxxmiIP7CClauseSt6vectorIS1_SaIS1_EEEENS_17__normal_iteratorIT_T0_E15difference_typeERKS9_SC_(%"class.__gnu_cxx::__normal_iterator.42"* dereferenceable(8) %itr, %"class.__gnu_cxx::__normal_iterator.42"* dereferenceable(8) %6)
  %185 = trunc i64 %184 to i32
  store i32 %185, i32* %5, align 4
  call void @_ZNSt5queueIiSt5dequeIiSaIiEEE4pushERKi(%"class.std::queue"* %179, i32* dereferenceable(4) %5)
  %186 = call dereferenceable(272) %"class.std::basic_ostream"* @_ZStlsISt11char_traitsIcEERSt13basic_ostreamIcT_ES5_PKc(%"class.std::basic_ostream"* dereferenceable(272) @_ZSt4cout, i8* getelementptr inbounds ([29 x i8], [29 x i8]* @.str.20, i32 0, i32 0))
  %187 = load %class.CClause*, %class.CClause** %cl, align 8
  %188 = call dereferenceable(272) %"class.std::basic_ostream"* @_ZlsRSoR7CClause(%"class.std::basic_ostream"* dereferenceable(272) %186, %class.CClause* dereferenceable(16) %187)
  %189 = call dereferenceable(272) %"class.std::basic_ostream"* @_ZNSolsEPFRSoS_E(%"class.std::basic_ostream"* %188, %"class.std::basic_ostream"* (%"class.std::basic_ostream"*)* @_ZSt4endlIcSt11char_traitsIcEERSt13basic_ostreamIT_T0_ES6_)
  br label %222

; <label>:190                                     ; preds = %167
  %191 = load %class.CClause*, %class.CClause** %cl, align 8
  %192 = call dereferenceable(4) i32* @_ZN7CClause8num_litsEv(%class.CClause* %191)
  %193 = load i32, i32* %192, align 4
  %194 = getelementptr inbounds %class.CSolver, %class.CSolver* %11, i32 0, i32 5
  %195 = getelementptr inbounds %struct.CSolverParameters, %struct.CSolverParameters* %194, i32 0, i32 7
  %196 = load i32, i32* %195, align 4
  %197 = icmp sgt i32 %193, %196
  br i1 %197, label %198, label %218

; <label>:198                                     ; preds = %190
  %199 = load i32, i32* %unknown_lits, align 4
  %200 = load i32, i32* %val_1_lits, align 4
  %201 = add nsw i32 %199, %200
  %202 = icmp sgt i32 %201, 1
  br i1 %202, label %203, label %218

; <label>:203                                     ; preds = %198
  %204 = bitcast %class.CSolver* %11 to %class.CDatabase*
  %205 = load %class.CClause*, %class.CClause** %cl, align 8
  call void @_ZN9CDatabase19mark_clause_deletedER7CClause(%class.CDatabase* %204, %class.CClause* dereferenceable(16) %205)
  %206 = call dereferenceable(272) %"class.std::basic_ostream"* @_ZStlsISt11char_traitsIcEERSt13basic_ostreamIcT_ES5_PKc(%"class.std::basic_ostream"* dereferenceable(272) @_ZSt4cout, i8* getelementptr inbounds ([28 x i8], [28 x i8]* @.str.21, i32 0, i32 0))
  %207 = load %class.CClause*, %class.CClause** %cl, align 8
  %208 = call dereferenceable(272) %"class.std::basic_ostream"* @_ZlsRSoR7CClause(%"class.std::basic_ostream"* dereferenceable(272) %206, %class.CClause* dereferenceable(16) %207)
  %209 = call dereferenceable(272) %"class.std::basic_ostream"* @_ZNSolsEPFRSoS_E(%"class.std::basic_ostream"* %208, %"class.std::basic_ostream"* (%"class.std::basic_ostream"*)* @_ZSt4endlIcSt11char_traitsIcEERSt13basic_ostreamIT_T0_ES6_)
  %210 = bitcast %class.CSolver* %11 to %class.CDatabase*
  %211 = getelementptr inbounds %class.CDatabase, %class.CDatabase* %210, i32 0, i32 6
  %212 = bitcast %class.CSolver* %11 to %class.CDatabase*
  %213 = call dereferenceable(24) %"class.std::vector.5"* @_ZN9CDatabase7clausesEv(%class.CDatabase* %212)
  %214 = call %class.CClause* @_ZNSt6vectorI7CClauseSaIS0_EE5beginEv(%"class.std::vector.5"* %213)
  %215 = getelementptr inbounds %"class.__gnu_cxx::__normal_iterator.42", %"class.__gnu_cxx::__normal_iterator.42"* %8, i32 0, i32 0
  store %class.CClause* %214, %class.CClause** %215, align 8
  %216 = call i64 @_ZN9__gnu_cxxmiIP7CClauseSt6vectorIS1_SaIS1_EEEENS_17__normal_iteratorIT_T0_E15difference_typeERKS9_SC_(%"class.__gnu_cxx::__normal_iterator.42"* dereferenceable(8) %itr, %"class.__gnu_cxx::__normal_iterator.42"* dereferenceable(8) %8)
  %217 = trunc i64 %216 to i32
  store i32 %217, i32* %7, align 4
  call void @_ZNSt5queueIiSt5dequeIiSaIiEEE4pushERKi(%"class.std::queue"* %211, i32* dereferenceable(4) %7)
  br label %222

; <label>:218                                     ; preds = %198, %190
  br label %219

; <label>:219                                     ; preds = %218
  %220 = load i32, i32* %i, align 4
  %221 = add nsw i32 %220, 1
  store i32 %221, i32* %i, align 4
  br label %136

; <label>:222                                     ; preds = %203, %175, %136
  br label %223

; <label>:223                                     ; preds = %222, %134
  %224 = call dereferenceable(8) %"class.__gnu_cxx::__normal_iterator.42"* @_ZN9__gnu_cxx17__normal_iteratorIP7CClauseSt6vectorIS1_SaIS1_EEEppEv(%"class.__gnu_cxx::__normal_iterator.42"* %itr)
  br label %112

; <label>:225                                     ; preds = %112
  %226 = load i32, i32* %original_num_deleted, align 4
  %227 = bitcast %class.CSolver* %11 to %class.CDatabase*
  %228 = call dereferenceable(4) i32* @_ZN9CDatabase19num_deleted_clausesEv(%class.CDatabase* %227)
  %229 = load i32, i32* %228, align 4
  %230 = icmp eq i32 %226, %229
  br i1 %230, label %231, label %232

; <label>:231                                     ; preds = %225
  br label %282

; <label>:232                                     ; preds = %225
  %233 = bitcast %class.CSolver* %11 to %class.CDatabase*
  %234 = call dereferenceable(24) %"class.std::vector"* @_ZN9CDatabase9variablesEv(%class.CDatabase* %233)
  %235 = call %class.CVariable* @_ZNSt6vectorI9CVariableSaIS0_EE5beginEv(%"class.std::vector"* %234)
  %236 = getelementptr inbounds %"class.__gnu_cxx::__normal_iterator.43", %"class.__gnu_cxx::__normal_iterator.43"* %itr1, i32 0, i32 0
  store %class.CVariable* %235, %class.CVariable** %236, align 8
  br label %237

; <label>:237                                     ; preds = %280, %232
  %238 = bitcast %class.CSolver* %11 to %class.CDatabase*
  %239 = call dereferenceable(24) %"class.std::vector"* @_ZN9CDatabase9variablesEv(%class.CDatabase* %238)
  %240 = call %class.CVariable* @_ZNSt6vectorI9CVariableSaIS0_EE3endEv(%"class.std::vector"* %239)
  %241 = getelementptr inbounds %"class.__gnu_cxx::__normal_iterator.43", %"class.__gnu_cxx::__normal_iterator.43"* %9, i32 0, i32 0
  store %class.CVariable* %240, %class.CVariable** %241, align 8
  %242 = call zeroext i1 @_ZN9__gnu_cxxneIP9CVariableSt6vectorIS1_SaIS1_EEEEbRKNS_17__normal_iteratorIT_T0_EESB_(%"class.__gnu_cxx::__normal_iterator.43"* dereferenceable(8) %itr1, %"class.__gnu_cxx::__normal_iterator.43"* dereferenceable(8) %9)
  br i1 %242, label %243, label %282

; <label>:243                                     ; preds = %237
  store i32 0, i32* %i2, align 4
  br label %244

; <label>:244                                     ; preds = %276, %243
  %245 = load i32, i32* %i2, align 4
  %246 = icmp slt i32 %245, 2
  br i1 %246, label %247, label %279

; <label>:247                                     ; preds = %244
  %248 = call dereferenceable(80) %class.CVariable* @_ZNK9__gnu_cxx17__normal_iteratorIP9CVariableSt6vectorIS1_SaIS1_EEEdeEv(%"class.__gnu_cxx::__normal_iterator.43"* %itr1)
  %249 = load i32, i32* %i2, align 4
  %250 = call dereferenceable(24) %"class.std::vector.0"* @_ZN9CVariable6ht_ptrEi(%class.CVariable* %248, i32 %249)
  store %"class.std::vector.0"* %250, %"class.std::vector.0"** %ht_ptr, align 8
  %251 = load %"class.std::vector.0"*, %"class.std::vector.0"** %ht_ptr, align 8
  %252 = call %class.CLitPoolElement** @_ZNSt6vectorIP15CLitPoolElementSaIS1_EE5beginEv(%"class.std::vector.0"* %251)
  %253 = getelementptr inbounds %"class.__gnu_cxx::__normal_iterator", %"class.__gnu_cxx::__normal_iterator"* %my_itr, i32 0, i32 0
  store %class.CLitPoolElement** %252, %class.CLitPoolElement*** %253, align 8
  br label %254

; <label>:254                                     ; preds = %273, %247
  %255 = load %"class.std::vector.0"*, %"class.std::vector.0"** %ht_ptr, align 8
  %256 = call %class.CLitPoolElement** @_ZNSt6vectorIP15CLitPoolElementSaIS1_EE3endEv(%"class.std::vector.0"* %255)
  %257 = getelementptr inbounds %"class.__gnu_cxx::__normal_iterator", %"class.__gnu_cxx::__normal_iterator"* %10, i32 0, i32 0
  store %class.CLitPoolElement** %256, %class.CLitPoolElement*** %257, align 8
  %258 = call zeroext i1 @_ZN9__gnu_cxxneIPP15CLitPoolElementSt6vectorIS2_SaIS2_EEEEbRKNS_17__normal_iteratorIT_T0_EESC_(%"class.__gnu_cxx::__normal_iterator"* dereferenceable(8) %my_itr, %"class.__gnu_cxx::__normal_iterator"* dereferenceable(8) %10)
  br i1 %258, label %259, label %275

; <label>:259                                     ; preds = %254
  %260 = call dereferenceable(8) %class.CLitPoolElement** @_ZNK9__gnu_cxx17__normal_iteratorIPP15CLitPoolElementSt6vectorIS2_SaIS2_EEEdeEv(%"class.__gnu_cxx::__normal_iterator"* %my_itr)
  %261 = load %class.CLitPoolElement*, %class.CLitPoolElement** %260, align 8
  %262 = call dereferenceable(4) i32* @_ZN15CLitPoolElement3valEv(%class.CLitPoolElement* %261)
  %263 = load i32, i32* %262, align 4
  %264 = icmp sle i32 %263, 0
  br i1 %264, label %265, label %272

; <label>:265                                     ; preds = %259
  %266 = load %"class.std::vector.0"*, %"class.std::vector.0"** %ht_ptr, align 8
  %267 = call dereferenceable(8) %class.CLitPoolElement** @_ZNSt6vectorIP15CLitPoolElementSaIS1_EE4backEv(%"class.std::vector.0"* %266)
  %268 = load %class.CLitPoolElement*, %class.CLitPoolElement** %267, align 8
  %269 = call dereferenceable(8) %class.CLitPoolElement** @_ZNK9__gnu_cxx17__normal_iteratorIPP15CLitPoolElementSt6vectorIS2_SaIS2_EEEdeEv(%"class.__gnu_cxx::__normal_iterator"* %my_itr)
  store %class.CLitPoolElement* %268, %class.CLitPoolElement** %269, align 8
  %270 = load %"class.std::vector.0"*, %"class.std::vector.0"** %ht_ptr, align 8
  call void @_ZNSt6vectorIP15CLitPoolElementSaIS1_EE8pop_backEv(%"class.std::vector.0"* %270)
  %271 = call dereferenceable(8) %"class.__gnu_cxx::__normal_iterator"* @_ZN9__gnu_cxx17__normal_iteratorIPP15CLitPoolElementSt6vectorIS2_SaIS2_EEEmmEv(%"class.__gnu_cxx::__normal_iterator"* %my_itr)
  br label %272

; <label>:272                                     ; preds = %265, %259
  br label %273

; <label>:273                                     ; preds = %272
  %274 = call dereferenceable(8) %"class.__gnu_cxx::__normal_iterator"* @_ZN9__gnu_cxx17__normal_iteratorIPP15CLitPoolElementSt6vectorIS2_SaIS2_EEEppEv(%"class.__gnu_cxx::__normal_iterator"* %my_itr)
  br label %254

; <label>:275                                     ; preds = %254
  br label %276

; <label>:276                                     ; preds = %275
  %277 = load i32, i32* %i2, align 4
  %278 = add nsw i32 %277, 1
  store i32 %278, i32* %i2, align 4
  br label %244

; <label>:279                                     ; preds = %244
  br label %280

; <label>:280                                     ; preds = %279
  %281 = call dereferenceable(8) %"class.__gnu_cxx::__normal_iterator.43"* @_ZN9__gnu_cxx17__normal_iteratorIP9CVariableSt6vectorIS1_SaIS1_EEEppEv(%"class.__gnu_cxx::__normal_iterator.43"* %itr1)
  br label %237

; <label>:282                                     ; preds = %231, %237
  ret void
}

; Function Attrs: nounwind uwtable
define linkonce_odr i32 @_ZN7CSolver16current_cpu_timeEv(%class.CSolver* %this) #4 comdat align 2 {
  %1 = alloca %class.CSolver*, align 8
  %ru = alloca %struct.rusage, align 8
  store %class.CSolver* %this, %class.CSolver** %1, align 8
  %2 = load %class.CSolver*, %class.CSolver** %1, align 8
  %3 = call i32 @getrusage(i32 0, %struct.rusage* %ru) #2
  %4 = getelementptr inbounds %struct.rusage, %struct.rusage* %ru, i32 0, i32 0
  %5 = getelementptr inbounds %struct.timeval, %struct.timeval* %4, i32 0, i32 0
  %6 = load i64, i64* %5, align 8
  %7 = mul nsw i64 %6, 1000
  %8 = getelementptr inbounds %struct.rusage, %struct.rusage* %ru, i32 0, i32 0
  %9 = getelementptr inbounds %struct.timeval, %struct.timeval* %8, i32 0, i32 1
  %10 = load i64, i64* %9, align 8
  %11 = sdiv i64 %10, 1000
  %12 = add nsw i64 %7, %11
  %13 = getelementptr inbounds %struct.rusage, %struct.rusage* %ru, i32 0, i32 1
  %14 = getelementptr inbounds %struct.timeval, %struct.timeval* %13, i32 0, i32 0
  %15 = load i64, i64* %14, align 8
  %16 = mul nsw i64 %15, 1000
  %17 = add nsw i64 %12, %16
  %18 = getelementptr inbounds %struct.rusage, %struct.rusage* %ru, i32 0, i32 1
  %19 = getelementptr inbounds %struct.timeval, %struct.timeval* %18, i32 0, i32 1
  %20 = load i64, i64* %19, align 8
  %21 = sdiv i64 %20, 1000
  %22 = add nsw i64 %17, %21
  %23 = trunc i64 %22 to i32
  ret i32 %23
}

declare dereferenceable(272) %"class.std::basic_ostream"* @_ZStlsISt11char_traitsIcEERSt13basic_ostreamIcT_ES5_PKc(%"class.std::basic_ostream"* dereferenceable(272), i8*) #1

declare dereferenceable(272) %"class.std::basic_ostream"* @_ZNSolsEPFRSoS_E(%"class.std::basic_ostream"*, %"class.std::basic_ostream"* (%"class.std::basic_ostream"*)*) #1

declare dereferenceable(272) %"class.std::basic_ostream"* @_ZSt4endlIcSt11char_traitsIcEERSt13basic_ostreamIT_T0_ES6_(%"class.std::basic_ostream"* dereferenceable(272)) #1

; Function Attrs: noreturn nounwind
declare void @exit(i32) #7

; Function Attrs: uwtable
define void @_ZN7CSolver16update_var_statsEv(%class.CSolver* %this) #0 align 2 {
  %1 = alloca %class.CSolver*, align 8
  %i = alloca i32, align 4
  %var = alloca %class.CVariable*, align 8
  %2 = alloca %"struct.std::pair.39", align 8
  %3 = alloca %class.CVariable*, align 8
  %4 = alloca i32, align 4
  %5 = alloca %"class.__gnu_cxx::__normal_iterator.44", align 8
  %6 = alloca %"class.__gnu_cxx::__normal_iterator.44", align 8
  %i1 = alloca i32, align 4
  store %class.CSolver* %this, %class.CSolver** %1, align 8
  %7 = load %class.CSolver*, %class.CSolver** %1, align 8
  store i32 1, i32* %i, align 4
  br label %8

; <label>:8                                       ; preds = %79, %0
  %9 = load i32, i32* %i, align 4
  %10 = sext i32 %9 to i64
  %11 = bitcast %class.CSolver* %7 to %class.CDatabase*
  %12 = call dereferenceable(24) %"class.std::vector"* @_ZN9CDatabase9variablesEv(%class.CDatabase* %11)
  %13 = call i64 @_ZNKSt6vectorI9CVariableSaIS0_EE4sizeEv(%"class.std::vector"* %12)
  %14 = icmp ult i64 %10, %13
  br i1 %14, label %15, label %82

; <label>:15                                      ; preds = %8
  %16 = bitcast %class.CSolver* %7 to %class.CDatabase*
  %17 = load i32, i32* %i, align 4
  %18 = call dereferenceable(80) %class.CVariable* @_ZN9CDatabase8variableEi(%class.CDatabase* %16, i32 %17)
  store %class.CVariable* %18, %class.CVariable** %var, align 8
  %19 = load %class.CVariable*, %class.CVariable** %var, align 8
  %20 = call dereferenceable(4) i32* @_ZN9CVariable5scoreEi(%class.CVariable* %19, i32 0)
  %21 = load i32, i32* %20, align 4
  %22 = sdiv i32 %21, 2
  %23 = load %class.CVariable*, %class.CVariable** %var, align 8
  %24 = call dereferenceable(4) i32* @_ZN9CVariable10lits_countEi(%class.CVariable* %23, i32 0)
  %25 = load i32, i32* %24, align 4
  %26 = add nsw i32 %22, %25
  %27 = getelementptr inbounds %class.CSolver, %class.CSolver* %7, i32 0, i32 8
  %28 = getelementptr inbounds [2 x %"class.std::vector.18"], [2 x %"class.std::vector.18"]* %27, i64 0, i64 0
  %29 = load i32, i32* %i, align 4
  %30 = sext i32 %29 to i64
  %31 = call dereferenceable(4) i32* @_ZNSt6vectorIiSaIiEEixEm(%"class.std::vector.18"* %28, i64 %30)
  %32 = load i32, i32* %31, align 4
  %33 = sub nsw i32 %26, %32
  %34 = load %class.CVariable*, %class.CVariable** %var, align 8
  %35 = call dereferenceable(4) i32* @_ZN9CVariable5scoreEi(%class.CVariable* %34, i32 0)
  store i32 %33, i32* %35, align 4
  %36 = load %class.CVariable*, %class.CVariable** %var, align 8
  %37 = call dereferenceable(4) i32* @_ZN9CVariable5scoreEi(%class.CVariable* %36, i32 1)
  %38 = load i32, i32* %37, align 4
  %39 = sdiv i32 %38, 2
  %40 = load %class.CVariable*, %class.CVariable** %var, align 8
  %41 = call dereferenceable(4) i32* @_ZN9CVariable10lits_countEi(%class.CVariable* %40, i32 1)
  %42 = load i32, i32* %41, align 4
  %43 = add nsw i32 %39, %42
  %44 = getelementptr inbounds %class.CSolver, %class.CSolver* %7, i32 0, i32 8
  %45 = getelementptr inbounds [2 x %"class.std::vector.18"], [2 x %"class.std::vector.18"]* %44, i64 0, i64 1
  %46 = load i32, i32* %i, align 4
  %47 = sext i32 %46 to i64
  %48 = call dereferenceable(4) i32* @_ZNSt6vectorIiSaIiEEixEm(%"class.std::vector.18"* %45, i64 %47)
  %49 = load i32, i32* %48, align 4
  %50 = sub nsw i32 %43, %49
  %51 = load %class.CVariable*, %class.CVariable** %var, align 8
  %52 = call dereferenceable(4) i32* @_ZN9CVariable5scoreEi(%class.CVariable* %51, i32 1)
  store i32 %50, i32* %52, align 4
  %53 = load %class.CVariable*, %class.CVariable** %var, align 8
  %54 = call dereferenceable(4) i32* @_ZN9CVariable10lits_countEi(%class.CVariable* %53, i32 0)
  %55 = load i32, i32* %54, align 4
  %56 = getelementptr inbounds %class.CSolver, %class.CSolver* %7, i32 0, i32 8
  %57 = getelementptr inbounds [2 x %"class.std::vector.18"], [2 x %"class.std::vector.18"]* %56, i64 0, i64 0
  %58 = load i32, i32* %i, align 4
  %59 = sext i32 %58 to i64
  %60 = call dereferenceable(4) i32* @_ZNSt6vectorIiSaIiEEixEm(%"class.std::vector.18"* %57, i64 %59)
  store i32 %55, i32* %60, align 4
  %61 = load %class.CVariable*, %class.CVariable** %var, align 8
  %62 = call dereferenceable(4) i32* @_ZN9CVariable10lits_countEi(%class.CVariable* %61, i32 1)
  %63 = load i32, i32* %62, align 4
  %64 = getelementptr inbounds %class.CSolver, %class.CSolver* %7, i32 0, i32 8
  %65 = getelementptr inbounds [2 x %"class.std::vector.18"], [2 x %"class.std::vector.18"]* %64, i64 0, i64 1
  %66 = load i32, i32* %i, align 4
  %67 = sext i32 %66 to i64
  %68 = call dereferenceable(4) i32* @_ZNSt6vectorIiSaIiEEixEm(%"class.std::vector.18"* %65, i64 %67)
  store i32 %63, i32* %68, align 4
  %69 = getelementptr inbounds %class.CSolver, %class.CSolver* %7, i32 0, i32 9
  %70 = load i32, i32* %i, align 4
  %71 = sub nsw i32 %70, 1
  %72 = sext i32 %71 to i64
  %73 = call dereferenceable(16) %"struct.std::pair.39"* @_ZNSt6vectorISt4pairIP9CVariableiESaIS3_EEixEm(%"class.std::vector.34"* %69, i64 %72)
  %74 = load %class.CVariable*, %class.CVariable** %var, align 8
  store %class.CVariable* %74, %class.CVariable** %3, align 8
  %75 = load %class.CVariable*, %class.CVariable** %var, align 8
  %76 = call i32 @_ZN9CVariable5scoreEv(%class.CVariable* %75)
  store i32 %76, i32* %4, align 4
  call void @_ZNSt4pairIP9CVariableiEC2ERKS1_RKi(%"struct.std::pair.39"* %2, %class.CVariable** dereferenceable(8) %3, i32* dereferenceable(4) %4)
  %77 = bitcast %"struct.std::pair.39"* %73 to i8*
  %78 = bitcast %"struct.std::pair.39"* %2 to i8*
  call void @llvm.memcpy.p0i8.p0i8.i64(i8* %77, i8* %78, i64 12, i32 8, i1 false)
  br label %79

; <label>:79                                      ; preds = %15
  %80 = load i32, i32* %i, align 4
  %81 = add nsw i32 %80, 1
  store i32 %81, i32* %i, align 4
  br label %8

; <label>:82                                      ; preds = %8
  %83 = getelementptr inbounds %class.CSolver, %class.CSolver* %7, i32 0, i32 9
  %84 = call %"struct.std::pair.39"* @_ZNSt6vectorISt4pairIP9CVariableiESaIS3_EE5beginEv(%"class.std::vector.34"* %83)
  %85 = getelementptr inbounds %"class.__gnu_cxx::__normal_iterator.44", %"class.__gnu_cxx::__normal_iterator.44"* %5, i32 0, i32 0
  store %"struct.std::pair.39"* %84, %"struct.std::pair.39"** %85, align 8
  %86 = getelementptr inbounds %class.CSolver, %class.CSolver* %7, i32 0, i32 9
  %87 = call %"struct.std::pair.39"* @_ZNSt6vectorISt4pairIP9CVariableiESaIS3_EE3endEv(%"class.std::vector.34"* %86)
  %88 = getelementptr inbounds %"class.__gnu_cxx::__normal_iterator.44", %"class.__gnu_cxx::__normal_iterator.44"* %6, i32 0, i32 0
  store %"struct.std::pair.39"* %87, %"struct.std::pair.39"** %88, align 8
  %89 = getelementptr inbounds %"class.__gnu_cxx::__normal_iterator.44", %"class.__gnu_cxx::__normal_iterator.44"* %5, i32 0, i32 0
  %90 = load %"struct.std::pair.39"*, %"struct.std::pair.39"** %89, align 8
  %91 = getelementptr inbounds %"class.__gnu_cxx::__normal_iterator.44", %"class.__gnu_cxx::__normal_iterator.44"* %6, i32 0, i32 0
  %92 = load %"struct.std::pair.39"*, %"struct.std::pair.39"** %91, align 8
  call void @_ZSt11stable_sortIN9__gnu_cxx17__normal_iteratorIPSt4pairIP9CVariableiESt6vectorIS5_SaIS5_EEEEPFbRKS5_SC_EEvT_SF_T0_(%"struct.std::pair.39"* %90, %"struct.std::pair.39"* %92, i1 (%"struct.std::pair.39"*, %"struct.std::pair.39"*)* @_Z16compare_var_statRKSt4pairIP9CVariableiES4_)
  store i32 0, i32* %i1, align 4
  br label %93

; <label>:93                                      ; preds = %108, %82
  %94 = load i32, i32* %i1, align 4
  %95 = sext i32 %94 to i64
  %96 = getelementptr inbounds %class.CSolver, %class.CSolver* %7, i32 0, i32 9
  %97 = call i64 @_ZNKSt6vectorISt4pairIP9CVariableiESaIS3_EE4sizeEv(%"class.std::vector.34"* %96)
  %98 = icmp ult i64 %95, %97
  br i1 %98, label %99, label %111

; <label>:99                                      ; preds = %93
  %100 = load i32, i32* %i1, align 4
  %101 = getelementptr inbounds %class.CSolver, %class.CSolver* %7, i32 0, i32 9
  %102 = load i32, i32* %i1, align 4
  %103 = sext i32 %102 to i64
  %104 = call dereferenceable(16) %"struct.std::pair.39"* @_ZNSt6vectorISt4pairIP9CVariableiESaIS3_EEixEm(%"class.std::vector.34"* %101, i64 %103)
  %105 = getelementptr inbounds %"struct.std::pair.39", %"struct.std::pair.39"* %104, i32 0, i32 0
  %106 = load %class.CVariable*, %class.CVariable** %105, align 8
  %107 = call dereferenceable(4) i32* @_ZN9CVariable13var_score_posEv(%class.CVariable* %106)
  store i32 %100, i32* %107, align 4
  br label %108

; <label>:108                                     ; preds = %99
  %109 = load i32, i32* %i1, align 4
  %110 = add nsw i32 %109, 1
  store i32 %110, i32* %i1, align 4
  br label %93

; <label>:111                                     ; preds = %93
  %112 = getelementptr inbounds %class.CSolver, %class.CSolver* %7, i32 0, i32 7
  store i32 0, i32* %112, align 8
  ret void
}

; Function Attrs: nounwind uwtable
define linkonce_odr i64 @_ZNKSt6vectorISt4pairIiS0_IPFvPvEiEESaIS5_EE4sizeEv(%"class.std::vector.27"* %this) #4 comdat align 2 {
  %1 = alloca %"class.std::vector.27"*, align 8
  store %"class.std::vector.27"* %this, %"class.std::vector.27"** %1, align 8
  %2 = load %"class.std::vector.27"*, %"class.std::vector.27"** %1, align 8
  %3 = bitcast %"class.std::vector.27"* %2 to %"struct.std::_Vector_base.28"*
  %4 = getelementptr inbounds %"struct.std::_Vector_base.28", %"struct.std::_Vector_base.28"* %3, i32 0, i32 0
  %5 = getelementptr inbounds %"struct.std::_Vector_base<std::pair<int, std::pair<void (*)(void *), int> >, std::allocator<std::pair<int, std::pair<void (*)(void *), int> > > >::_Vector_impl", %"struct.std::_Vector_base<std::pair<int, std::pair<void (*)(void *), int> >, std::allocator<std::pair<int, std::pair<void (*)(void *), int> > > >::_Vector_impl"* %4, i32 0, i32 1
  %6 = load %"struct.std::pair.32"*, %"struct.std::pair.32"** %5, align 8
  %7 = bitcast %"class.std::vector.27"* %2 to %"struct.std::_Vector_base.28"*
  %8 = getelementptr inbounds %"struct.std::_Vector_base.28", %"struct.std::_Vector_base.28"* %7, i32 0, i32 0
  %9 = getelementptr inbounds %"struct.std::_Vector_base<std::pair<int, std::pair<void (*)(void *), int> >, std::allocator<std::pair<int, std::pair<void (*)(void *), int> > > >::_Vector_impl", %"struct.std::_Vector_base<std::pair<int, std::pair<void (*)(void *), int> >, std::allocator<std::pair<int, std::pair<void (*)(void *), int> > > >::_Vector_impl"* %8, i32 0, i32 0
  %10 = load %"struct.std::pair.32"*, %"struct.std::pair.32"** %9, align 8
  %11 = ptrtoint %"struct.std::pair.32"* %6 to i64
  %12 = ptrtoint %"struct.std::pair.32"* %10 to i64
  %13 = sub i64 %11, %12
  %14 = sdiv exact i64 %13, 24
  ret i64 %14
}

; Function Attrs: nounwind uwtable
define linkonce_odr dereferenceable(24) %"struct.std::pair.32"* @_ZNSt6vectorISt4pairIiS0_IPFvPvEiEESaIS5_EEixEm(%"class.std::vector.27"* %this, i64 %__n) #4 comdat align 2 {
  %1 = alloca %"class.std::vector.27"*, align 8
  %2 = alloca i64, align 8
  store %"class.std::vector.27"* %this, %"class.std::vector.27"** %1, align 8
  store i64 %__n, i64* %2, align 8
  %3 = load %"class.std::vector.27"*, %"class.std::vector.27"** %1, align 8
  %4 = bitcast %"class.std::vector.27"* %3 to %"struct.std::_Vector_base.28"*
  %5 = getelementptr inbounds %"struct.std::_Vector_base.28", %"struct.std::_Vector_base.28"* %4, i32 0, i32 0
  %6 = getelementptr inbounds %"struct.std::_Vector_base<std::pair<int, std::pair<void (*)(void *), int> >, std::allocator<std::pair<int, std::pair<void (*)(void *), int> > > >::_Vector_impl", %"struct.std::_Vector_base<std::pair<int, std::pair<void (*)(void *), int> >, std::allocator<std::pair<int, std::pair<void (*)(void *), int> > > >::_Vector_impl"* %5, i32 0, i32 0
  %7 = load %"struct.std::pair.32"*, %"struct.std::pair.32"** %6, align 8
  %8 = load i64, i64* %2, align 8
  %9 = getelementptr inbounds %"struct.std::pair.32", %"struct.std::pair.32"* %7, i64 %8
  ret %"struct.std::pair.32"* %9
}

; Function Attrs: uwtable
define void @_ZN7CSolver4initEP11Assignments(%class.CSolver* %this, %struct.Assignments* %results) #0 align 2 personality i8* bitcast (i32 (...)* @__gxx_personality_v0 to i8*) {
  %1 = alloca %class.CSolver*, align 8
  %2 = alloca %struct.Assignments*, align 8
  %i = alloca i32, align 4
  %3 = alloca %"class.std::vector.18"*, align 8
  %4 = alloca i8*
  %5 = alloca i32
  %6 = alloca %"struct.std::pair.39", align 8
  store %class.CSolver* %this, %class.CSolver** %1, align 8
  store %struct.Assignments* %results, %struct.Assignments** %2, align 8
  %7 = load %class.CSolver*, %class.CSolver** %1, align 8
  %8 = getelementptr inbounds %class.CSolver, %class.CSolver* %7, i32 0, i32 5
  %9 = getelementptr inbounds %struct.CSolverParameters, %struct.CSolverParameters* %8, i32 0, i32 36
  %10 = load i8, i8* %9, align 1
  %11 = trunc i8 %10 to i1
  br i1 %11, label %12, label %57

; <label>:12                                      ; preds = %0
  %13 = bitcast %class.CSolver* %7 to %class.CDatabase*
  call void @_ZN9CDatabase4initEv(%class.CDatabase* %13)
  %14 = bitcast %class.CSolver* %7 to %class.CDatabase*
  %15 = call i32 @_ZN9CDatabase13num_variablesEv(%class.CDatabase* %14)
  %16 = getelementptr inbounds %class.CSolver, %class.CSolver* %7, i32 0, i32 15
  %17 = getelementptr inbounds %struct.CSolverStats, %struct.CSolverStats* %16, i32 0, i32 13
  store i32 %15, i32* %17, align 8
  store i32 0, i32* %i, align 4
  br label %18

; <label>:18                                      ; preds = %30, %12
  %19 = load i32, i32* %i, align 4
  %20 = sext i32 %19 to i64
  %21 = bitcast %class.CSolver* %7 to %class.CDatabase*
  %22 = call dereferenceable(24) %"class.std::vector"* @_ZN9CDatabase9variablesEv(%class.CDatabase* %21)
  %23 = call i64 @_ZNKSt6vectorI9CVariableSaIS0_EE4sizeEv(%"class.std::vector"* %22)
  %24 = icmp ult i64 %20, %23
  br i1 %24, label %25, label %37

; <label>:25                                      ; preds = %18
  %26 = getelementptr inbounds %class.CSolver, %class.CSolver* %7, i32 0, i32 3
  %27 = call noalias i8* @_Znwm(i64 24) #15
  %28 = bitcast i8* %27 to %"class.std::vector.18"*
  invoke void @_ZNSt6vectorIiSaIiEEC2Ev(%"class.std::vector.18"* %28)
          to label %29 unwind label %33

; <label>:29                                      ; preds = %25
  store %"class.std::vector.18"* %28, %"class.std::vector.18"** %3, align 8
  call void @_ZNSt6vectorIPS_IiSaIiEESaIS2_EE9push_backERKS2_(%"class.std::vector.13"* %26, %"class.std::vector.18"** dereferenceable(8) %3)
  br label %30

; <label>:30                                      ; preds = %29
  %31 = load i32, i32* %i, align 4
  %32 = add nsw i32 %31, 1
  store i32 %32, i32* %i, align 4
  br label %18

; <label>:33                                      ; preds = %25
  %34 = landingpad { i8*, i32 }
          cleanup
  %35 = extractvalue { i8*, i32 } %34, 0
  store i8* %35, i8** %4, align 8
  %36 = extractvalue { i8*, i32 } %34, 1
  store i32 %36, i32* %5, align 4
  call void @_ZdlPv(i8* %27) #14
  br label %76

; <label>:37                                      ; preds = %18
  %38 = getelementptr inbounds %class.CSolver, %class.CSolver* %7, i32 0, i32 9
  %39 = bitcast %class.CSolver* %7 to %class.CDatabase*
  %40 = call i32 @_ZN9CDatabase13num_variablesEv(%class.CDatabase* %39)
  %41 = sext i32 %40 to i64
  call void @_ZNSt4pairIP9CVariableiEC2Ev(%"struct.std::pair.39"* %6)
  %42 = bitcast %"struct.std::pair.39"* %6 to { %class.CVariable*, i32 }*
  %43 = getelementptr inbounds { %class.CVariable*, i32 }, { %class.CVariable*, i32 }* %42, i32 0, i32 0
  %44 = load %class.CVariable*, %class.CVariable** %43, align 8
  %45 = getelementptr inbounds { %class.CVariable*, i32 }, { %class.CVariable*, i32 }* %42, i32 0, i32 1
  %46 = load i32, i32* %45, align 8
  call void @_ZNSt6vectorISt4pairIP9CVariableiESaIS3_EE6resizeEmS3_(%"class.std::vector.34"* %38, i64 %41, %class.CVariable* %44, i32 %46)
  %47 = getelementptr inbounds %class.CSolver, %class.CSolver* %7, i32 0, i32 8
  %48 = getelementptr inbounds [2 x %"class.std::vector.18"], [2 x %"class.std::vector.18"]* %47, i64 0, i64 0
  %49 = bitcast %class.CSolver* %7 to %class.CDatabase*
  %50 = call dereferenceable(24) %"class.std::vector"* @_ZN9CDatabase9variablesEv(%class.CDatabase* %49)
  %51 = call i64 @_ZNKSt6vectorI9CVariableSaIS0_EE4sizeEv(%"class.std::vector"* %50)
  call void @_ZNSt6vectorIiSaIiEE6resizeEmi(%"class.std::vector.18"* %48, i64 %51, i32 0)
  %52 = getelementptr inbounds %class.CSolver, %class.CSolver* %7, i32 0, i32 8
  %53 = getelementptr inbounds [2 x %"class.std::vector.18"], [2 x %"class.std::vector.18"]* %52, i64 0, i64 1
  %54 = bitcast %class.CSolver* %7 to %class.CDatabase*
  %55 = call dereferenceable(24) %"class.std::vector"* @_ZN9CDatabase9variablesEv(%class.CDatabase* %54)
  %56 = call i64 @_ZNKSt6vectorI9CVariableSaIS0_EE4sizeEv(%"class.std::vector"* %55)
  call void @_ZNSt6vectorIiSaIiEE6resizeEmi(%"class.std::vector.18"* %53, i64 %56, i32 0)
  br label %57

; <label>:57                                      ; preds = %37, %0
  %58 = getelementptr inbounds %class.CSolver, %class.CSolver* %7, i32 0, i32 15
  %59 = getelementptr inbounds %struct.CSolverStats, %struct.CSolverStats* %58, i32 0, i32 0
  store i8 1, i8* %59, align 8
  %60 = call i32 @_ZN7CSolver16current_cpu_timeEv(%class.CSolver* %7)
  %61 = sext i32 %60 to i64
  %62 = getelementptr inbounds %class.CSolver, %class.CSolver* %7, i32 0, i32 15
  %63 = getelementptr inbounds %struct.CSolverStats, %struct.CSolverStats* %62, i32 0, i32 3
  store i64 %61, i64* %63, align 8
  %64 = call i32 @_ZN7CSolver18current_world_timeEv(%class.CSolver* %7)
  %65 = sext i32 %64 to i64
  %66 = getelementptr inbounds %class.CSolver, %class.CSolver* %7, i32 0, i32 15
  %67 = getelementptr inbounds %struct.CSolverStats, %struct.CSolverStats* %66, i32 0, i32 6
  store i64 %65, i64* %67, align 8
  %68 = load %struct.Assignments*, %struct.Assignments** %2, align 8
  %69 = icmp ne %struct.Assignments* %68, null
  br i1 %69, label %72, label %70

; <label>:70                                      ; preds = %57
  %71 = call dereferenceable(272) %"class.std::basic_ostream"* @_ZStlsISt11char_traitsIcEERSt13basic_ostreamIcT_ES5_PKc(%"class.std::basic_ostream"* dereferenceable(272) @_ZSt4cerr, i8* getelementptr inbounds ([68 x i8], [68 x i8]* @.str.3, i32 0, i32 0))
  call void @exit(i32 -1) #13
  unreachable

; <label>:72                                      ; preds = %57
  %73 = load %struct.Assignments*, %struct.Assignments** %2, align 8
  %74 = getelementptr inbounds %class.CSolver, %class.CSolver* %7, i32 0, i32 5
  %75 = getelementptr inbounds %struct.CSolverParameters, %struct.CSolverParameters* %74, i32 0, i32 27
  store %struct.Assignments* %73, %struct.Assignments** %75, align 8
  call void @_ZN7CSolver4dumpERSo(%class.CSolver* %7, %"class.std::basic_ostream"* dereferenceable(272) @_ZSt4cout)
  ret void

; <label>:76                                      ; preds = %33
  %77 = load i8*, i8** %4, align 8
  %78 = load i32, i32* %5, align 4
  %79 = insertvalue { i8*, i32 } undef, i8* %77, 0
  %80 = insertvalue { i8*, i32 } %79, i32 %78, 1
  resume { i8*, i32 } %80
}

; Function Attrs: uwtable
define linkonce_odr void @_ZN9CDatabase4initEv(%class.CDatabase* %this) #0 comdat align 2 {
  %1 = alloca %class.CDatabase*, align 8
  store %class.CDatabase* %this, %class.CDatabase** %1, align 8
  %2 = load %class.CDatabase*, %class.CDatabase** %1, align 8
  %3 = call i32 @_ZN9CDatabase11num_clausesEv(%class.CDatabase* %2)
  %4 = call dereferenceable(4) i32* @_ZN9CDatabase16init_num_clausesEv(%class.CDatabase* %2)
  store i32 %3, i32* %4, align 4
  %5 = call i32 @_ZN9CDatabase12num_literalsEv(%class.CDatabase* %2)
  %6 = call dereferenceable(4) i32* @_ZN9CDatabase17init_num_literalsEv(%class.CDatabase* %2)
  store i32 %5, i32* %6, align 4
  ret void
}

; Function Attrs: uwtable
define linkonce_odr i32 @_ZN9CDatabase13num_variablesEv(%class.CDatabase* %this) #0 comdat align 2 {
  %1 = alloca %class.CDatabase*, align 8
  store %class.CDatabase* %this, %class.CDatabase** %1, align 8
  %2 = load %class.CDatabase*, %class.CDatabase** %1, align 8
  %3 = call dereferenceable(24) %"class.std::vector"* @_ZN9CDatabase9variablesEv(%class.CDatabase* %2)
  %4 = call i64 @_ZNKSt6vectorI9CVariableSaIS0_EE4sizeEv(%"class.std::vector"* %3)
  %5 = sub i64 %4, 1
  %6 = trunc i64 %5 to i32
  ret i32 %6
}

; Function Attrs: uwtable
define linkonce_odr void @_ZNSt6vectorIPS_IiSaIiEESaIS2_EE9push_backERKS2_(%"class.std::vector.13"* %this, %"class.std::vector.18"** dereferenceable(8) %__x) #0 comdat align 2 {
  %1 = alloca %"class.std::vector.13"*, align 8
  %2 = alloca %"class.std::vector.18"**, align 8
  %3 = alloca %"class.__gnu_cxx::__normal_iterator.65", align 8
  store %"class.std::vector.13"* %this, %"class.std::vector.13"** %1, align 8
  store %"class.std::vector.18"** %__x, %"class.std::vector.18"*** %2, align 8
  %4 = load %"class.std::vector.13"*, %"class.std::vector.13"** %1, align 8
  %5 = bitcast %"class.std::vector.13"* %4 to %"struct.std::_Vector_base.14"*
  %6 = getelementptr inbounds %"struct.std::_Vector_base.14", %"struct.std::_Vector_base.14"* %5, i32 0, i32 0
  %7 = getelementptr inbounds %"struct.std::_Vector_base<std::vector<int, std::allocator<int> > *, std::allocator<std::vector<int, std::allocator<int> > *> >::_Vector_impl", %"struct.std::_Vector_base<std::vector<int, std::allocator<int> > *, std::allocator<std::vector<int, std::allocator<int> > *> >::_Vector_impl"* %6, i32 0, i32 1
  %8 = load %"class.std::vector.18"**, %"class.std::vector.18"*** %7, align 8
  %9 = bitcast %"class.std::vector.13"* %4 to %"struct.std::_Vector_base.14"*
  %10 = getelementptr inbounds %"struct.std::_Vector_base.14", %"struct.std::_Vector_base.14"* %9, i32 0, i32 0
  %11 = getelementptr inbounds %"struct.std::_Vector_base<std::vector<int, std::allocator<int> > *, std::allocator<std::vector<int, std::allocator<int> > *> >::_Vector_impl", %"struct.std::_Vector_base<std::vector<int, std::allocator<int> > *, std::allocator<std::vector<int, std::allocator<int> > *> >::_Vector_impl"* %10, i32 0, i32 2
  %12 = load %"class.std::vector.18"**, %"class.std::vector.18"*** %11, align 8
  %13 = icmp ne %"class.std::vector.18"** %8, %12
  br i1 %13, label %14, label %28

; <label>:14                                      ; preds = %0
  %15 = bitcast %"class.std::vector.13"* %4 to %"struct.std::_Vector_base.14"*
  %16 = getelementptr inbounds %"struct.std::_Vector_base.14", %"struct.std::_Vector_base.14"* %15, i32 0, i32 0
  %17 = bitcast %"struct.std::_Vector_base<std::vector<int, std::allocator<int> > *, std::allocator<std::vector<int, std::allocator<int> > *> >::_Vector_impl"* %16 to %"class.std::allocator.15"*
  %18 = bitcast %"class.std::vector.13"* %4 to %"struct.std::_Vector_base.14"*
  %19 = getelementptr inbounds %"struct.std::_Vector_base.14", %"struct.std::_Vector_base.14"* %18, i32 0, i32 0
  %20 = getelementptr inbounds %"struct.std::_Vector_base<std::vector<int, std::allocator<int> > *, std::allocator<std::vector<int, std::allocator<int> > *> >::_Vector_impl", %"struct.std::_Vector_base<std::vector<int, std::allocator<int> > *, std::allocator<std::vector<int, std::allocator<int> > *> >::_Vector_impl"* %19, i32 0, i32 1
  %21 = load %"class.std::vector.18"**, %"class.std::vector.18"*** %20, align 8
  %22 = load %"class.std::vector.18"**, %"class.std::vector.18"*** %2, align 8
  call void @_ZN9__gnu_cxx14__alloc_traitsISaIPSt6vectorIiSaIiEEEE9constructIS4_EEvRS5_PS4_RKT_(%"class.std::allocator.15"* dereferenceable(1) %17, %"class.std::vector.18"** %21, %"class.std::vector.18"** dereferenceable(8) %22)
  %23 = bitcast %"class.std::vector.13"* %4 to %"struct.std::_Vector_base.14"*
  %24 = getelementptr inbounds %"struct.std::_Vector_base.14", %"struct.std::_Vector_base.14"* %23, i32 0, i32 0
  %25 = getelementptr inbounds %"struct.std::_Vector_base<std::vector<int, std::allocator<int> > *, std::allocator<std::vector<int, std::allocator<int> > *> >::_Vector_impl", %"struct.std::_Vector_base<std::vector<int, std::allocator<int> > *, std::allocator<std::vector<int, std::allocator<int> > *> >::_Vector_impl"* %24, i32 0, i32 1
  %26 = load %"class.std::vector.18"**, %"class.std::vector.18"*** %25, align 8
  %27 = getelementptr inbounds %"class.std::vector.18"*, %"class.std::vector.18"** %26, i32 1
  store %"class.std::vector.18"** %27, %"class.std::vector.18"*** %25, align 8
  br label %34

; <label>:28                                      ; preds = %0
  %29 = call %"class.std::vector.18"** @_ZNSt6vectorIPS_IiSaIiEESaIS2_EE3endEv(%"class.std::vector.13"* %4)
  %30 = getelementptr inbounds %"class.__gnu_cxx::__normal_iterator.65", %"class.__gnu_cxx::__normal_iterator.65"* %3, i32 0, i32 0
  store %"class.std::vector.18"** %29, %"class.std::vector.18"*** %30, align 8
  %31 = load %"class.std::vector.18"**, %"class.std::vector.18"*** %2, align 8
  %32 = getelementptr inbounds %"class.__gnu_cxx::__normal_iterator.65", %"class.__gnu_cxx::__normal_iterator.65"* %3, i32 0, i32 0
  %33 = load %"class.std::vector.18"**, %"class.std::vector.18"*** %32, align 8
  call void @_ZNSt6vectorIPS_IiSaIiEESaIS2_EE13_M_insert_auxEN9__gnu_cxx17__normal_iteratorIPS2_S4_EERKS2_(%"class.std::vector.13"* %4, %"class.std::vector.18"** %33, %"class.std::vector.18"** dereferenceable(8) %31)
  br label %34

; <label>:34                                      ; preds = %28, %14
  ret void
}

; Function Attrs: nobuiltin
declare noalias i8* @_Znwm(i64) #8

; Function Attrs: uwtable
define linkonce_odr void @_ZNSt6vectorISt4pairIP9CVariableiESaIS3_EE6resizeEmS3_(%"class.std::vector.34"* %this, i64 %__new_size, %class.CVariable* %__x.coerce0, i32 %__x.coerce1) #0 comdat align 2 {
  %__x = alloca %"struct.std::pair.39", align 8
  %1 = alloca %"class.std::vector.34"*, align 8
  %2 = alloca i64, align 8
  %3 = alloca %"class.__gnu_cxx::__normal_iterator.44", align 8
  %4 = bitcast %"struct.std::pair.39"* %__x to { %class.CVariable*, i32 }*
  %5 = getelementptr inbounds { %class.CVariable*, i32 }, { %class.CVariable*, i32 }* %4, i32 0, i32 0
  store %class.CVariable* %__x.coerce0, %class.CVariable** %5, align 8
  %6 = getelementptr inbounds { %class.CVariable*, i32 }, { %class.CVariable*, i32 }* %4, i32 0, i32 1
  store i32 %__x.coerce1, i32* %6, align 8
  store %"class.std::vector.34"* %this, %"class.std::vector.34"** %1, align 8
  store i64 %__new_size, i64* %2, align 8
  %7 = load %"class.std::vector.34"*, %"class.std::vector.34"** %1, align 8
  %8 = load i64, i64* %2, align 8
  %9 = call i64 @_ZNKSt6vectorISt4pairIP9CVariableiESaIS3_EE4sizeEv(%"class.std::vector.34"* %7)
  %10 = icmp ugt i64 %8, %9
  br i1 %10, label %11, label %19

; <label>:11                                      ; preds = %0
  %12 = call %"struct.std::pair.39"* @_ZNSt6vectorISt4pairIP9CVariableiESaIS3_EE3endEv(%"class.std::vector.34"* %7)
  %13 = getelementptr inbounds %"class.__gnu_cxx::__normal_iterator.44", %"class.__gnu_cxx::__normal_iterator.44"* %3, i32 0, i32 0
  store %"struct.std::pair.39"* %12, %"struct.std::pair.39"** %13, align 8
  %14 = load i64, i64* %2, align 8
  %15 = call i64 @_ZNKSt6vectorISt4pairIP9CVariableiESaIS3_EE4sizeEv(%"class.std::vector.34"* %7)
  %16 = sub i64 %14, %15
  %17 = getelementptr inbounds %"class.__gnu_cxx::__normal_iterator.44", %"class.__gnu_cxx::__normal_iterator.44"* %3, i32 0, i32 0
  %18 = load %"struct.std::pair.39"*, %"struct.std::pair.39"** %17, align 8
  call void @_ZNSt6vectorISt4pairIP9CVariableiESaIS3_EE6insertEN9__gnu_cxx17__normal_iteratorIPS3_S5_EEmRKS3_(%"class.std::vector.34"* %7, %"struct.std::pair.39"* %18, i64 %16, %"struct.std::pair.39"* dereferenceable(16) %__x)
  br label %31

; <label>:19                                      ; preds = %0
  %20 = load i64, i64* %2, align 8
  %21 = call i64 @_ZNKSt6vectorISt4pairIP9CVariableiESaIS3_EE4sizeEv(%"class.std::vector.34"* %7)
  %22 = icmp ult i64 %20, %21
  br i1 %22, label %23, label %30

; <label>:23                                      ; preds = %19
  %24 = bitcast %"class.std::vector.34"* %7 to %"struct.std::_Vector_base.35"*
  %25 = getelementptr inbounds %"struct.std::_Vector_base.35", %"struct.std::_Vector_base.35"* %24, i32 0, i32 0
  %26 = getelementptr inbounds %"struct.std::_Vector_base<std::pair<CVariable *, int>, std::allocator<std::pair<CVariable *, int> > >::_Vector_impl", %"struct.std::_Vector_base<std::pair<CVariable *, int>, std::allocator<std::pair<CVariable *, int> > >::_Vector_impl"* %25, i32 0, i32 0
  %27 = load %"struct.std::pair.39"*, %"struct.std::pair.39"** %26, align 8
  %28 = load i64, i64* %2, align 8
  %29 = getelementptr inbounds %"struct.std::pair.39", %"struct.std::pair.39"* %27, i64 %28
  call void @_ZNSt6vectorISt4pairIP9CVariableiESaIS3_EE15_M_erase_at_endEPS3_(%"class.std::vector.34"* %7, %"struct.std::pair.39"* %29)
  br label %30

; <label>:30                                      ; preds = %23, %19
  br label %31

; <label>:31                                      ; preds = %30, %11
  ret void
}

; Function Attrs: nounwind uwtable
define linkonce_odr void @_ZNSt4pairIP9CVariableiEC2Ev(%"struct.std::pair.39"* %this) unnamed_addr #4 comdat align 2 {
  %1 = alloca %"struct.std::pair.39"*, align 8
  store %"struct.std::pair.39"* %this, %"struct.std::pair.39"** %1, align 8
  %2 = load %"struct.std::pair.39"*, %"struct.std::pair.39"** %1, align 8
  %3 = getelementptr inbounds %"struct.std::pair.39", %"struct.std::pair.39"* %2, i32 0, i32 0
  store %class.CVariable* null, %class.CVariable** %3, align 8
  %4 = getelementptr inbounds %"struct.std::pair.39", %"struct.std::pair.39"* %2, i32 0, i32 1
  store i32 0, i32* %4, align 8
  ret void
}

; Function Attrs: uwtable
define linkonce_odr void @_ZNSt6vectorIiSaIiEE6resizeEmi(%"class.std::vector.18"* %this, i64 %__new_size, i32 %__x) #0 comdat align 2 {
  %1 = alloca %"class.std::vector.18"*, align 8
  %2 = alloca i64, align 8
  %3 = alloca i32, align 4
  %4 = alloca %"class.__gnu_cxx::__normal_iterator.66", align 8
  store %"class.std::vector.18"* %this, %"class.std::vector.18"** %1, align 8
  store i64 %__new_size, i64* %2, align 8
  store i32 %__x, i32* %3, align 4
  %5 = load %"class.std::vector.18"*, %"class.std::vector.18"** %1, align 8
  %6 = load i64, i64* %2, align 8
  %7 = call i64 @_ZNKSt6vectorIiSaIiEE4sizeEv(%"class.std::vector.18"* %5)
  %8 = icmp ugt i64 %6, %7
  br i1 %8, label %9, label %17

; <label>:9                                       ; preds = %0
  %10 = call i32* @_ZNSt6vectorIiSaIiEE3endEv(%"class.std::vector.18"* %5)
  %11 = getelementptr inbounds %"class.__gnu_cxx::__normal_iterator.66", %"class.__gnu_cxx::__normal_iterator.66"* %4, i32 0, i32 0
  store i32* %10, i32** %11, align 8
  %12 = load i64, i64* %2, align 8
  %13 = call i64 @_ZNKSt6vectorIiSaIiEE4sizeEv(%"class.std::vector.18"* %5)
  %14 = sub i64 %12, %13
  %15 = getelementptr inbounds %"class.__gnu_cxx::__normal_iterator.66", %"class.__gnu_cxx::__normal_iterator.66"* %4, i32 0, i32 0
  %16 = load i32*, i32** %15, align 8
  call void @_ZNSt6vectorIiSaIiEE6insertEN9__gnu_cxx17__normal_iteratorIPiS1_EEmRKi(%"class.std::vector.18"* %5, i32* %16, i64 %14, i32* dereferenceable(4) %3)
  br label %29

; <label>:17                                      ; preds = %0
  %18 = load i64, i64* %2, align 8
  %19 = call i64 @_ZNKSt6vectorIiSaIiEE4sizeEv(%"class.std::vector.18"* %5)
  %20 = icmp ult i64 %18, %19
  br i1 %20, label %21, label %28

; <label>:21                                      ; preds = %17
  %22 = bitcast %"class.std::vector.18"* %5 to %"struct.std::_Vector_base.19"*
  %23 = getelementptr inbounds %"struct.std::_Vector_base.19", %"struct.std::_Vector_base.19"* %22, i32 0, i32 0
  %24 = getelementptr inbounds %"struct.std::_Vector_base<int, std::allocator<int> >::_Vector_impl", %"struct.std::_Vector_base<int, std::allocator<int> >::_Vector_impl"* %23, i32 0, i32 0
  %25 = load i32*, i32** %24, align 8
  %26 = load i64, i64* %2, align 8
  %27 = getelementptr inbounds i32, i32* %25, i64 %26
  call void @_ZNSt6vectorIiSaIiEE15_M_erase_at_endEPi(%"class.std::vector.18"* %5, i32* %27)
  br label %28

; <label>:28                                      ; preds = %21, %17
  br label %29

; <label>:29                                      ; preds = %28, %9
  ret void
}

; Function Attrs: nounwind uwtable
define linkonce_odr i32 @_ZN7CSolver18current_world_timeEv(%class.CSolver* %this) #4 comdat align 2 {
  %1 = alloca %class.CSolver*, align 8
  %tv = alloca %struct.timeval, align 8
  %tz = alloca %struct.timezone, align 4
  store %class.CSolver* %this, %class.CSolver** %1, align 8
  %2 = load %class.CSolver*, %class.CSolver** %1, align 8
  %3 = call i32 @gettimeofday(%struct.timeval* %tv, %struct.timezone* %tz) #2
  %4 = getelementptr inbounds %struct.timeval, %struct.timeval* %tv, i32 0, i32 0
  %5 = load i64, i64* %4, align 8
  %6 = mul nsw i64 %5, 1000
  %7 = getelementptr inbounds %struct.timeval, %struct.timeval* %tv, i32 0, i32 1
  %8 = load i64, i64* %7, align 8
  %9 = sdiv i64 %8, 1000
  %10 = add nsw i64 %6, %9
  %11 = trunc i64 %10 to i32
  ret i32 %11
}

; Function Attrs: uwtable
define linkonce_odr void @_ZN7CSolver4dumpERSo(%class.CSolver* %this, %"class.std::basic_ostream"* dereferenceable(272) %os) #0 comdat align 2 {
  %1 = alloca %class.CSolver*, align 8
  %2 = alloca %"class.std::basic_ostream"*, align 8
  store %class.CSolver* %this, %class.CSolver** %1, align 8
  store %"class.std::basic_ostream"* %os, %"class.std::basic_ostream"** %2, align 8
  %3 = load %class.CSolver*, %class.CSolver** %1, align 8
  %4 = bitcast %class.CSolver* %3 to %class.CDatabase*
  %5 = load %"class.std::basic_ostream"*, %"class.std::basic_ostream"** %2, align 8
  call void @_ZN9CDatabase4dumpERSo(%class.CDatabase* %4, %"class.std::basic_ostream"* dereferenceable(272) %5)
  %6 = load %"class.std::basic_ostream"*, %"class.std::basic_ostream"** %2, align 8
  call void @_ZN7CSolver21dump_assignment_stackERSo(%class.CSolver* %3, %"class.std::basic_ostream"* dereferenceable(272) %6)
  ret void
}

; Function Attrs: uwtable
define void @_ZN7CSolver13set_var_valueEiiii(%class.CSolver* %this, i32 %v, i32 %value, i32 %ante, i32 %dl) #0 align 2 {
  %1 = alloca %class.CSolver*, align 8
  %2 = alloca i32, align 4
  %3 = alloca i32, align 4
  %4 = alloca i32, align 4
  %5 = alloca i32, align 4
  %var = alloca %class.CVariable*, align 8
  %ht_ptrs = alloca %"class.std::vector.0"*, align 8
  store %class.CSolver* %this, %class.CSolver** %1, align 8
  store i32 %v, i32* %2, align 4
  store i32 %value, i32* %3, align 4
  store i32 %ante, i32* %4, align 4
  store i32 %dl, i32* %5, align 4
  %6 = load %class.CSolver*, %class.CSolver** %1, align 8
  %7 = load i32, i32* %3, align 4
  %8 = icmp eq i32 %7, 0
  br i1 %8, label %12, label %9

; <label>:9                                       ; preds = %0
  %10 = load i32, i32* %3, align 4
  %11 = icmp eq i32 %10, 1
  br i1 %11, label %12, label %13

; <label>:12                                      ; preds = %9, %0
  br label %15

; <label>:13                                      ; preds = %9
  call void @__assert_fail(i8* getelementptr inbounds ([25 x i8], [25 x i8]* @.str.4, i32 0, i32 0), i8* getelementptr inbounds ([16 x i8], [16 x i8]* @.str.5, i32 0, i32 0), i32 176, i8* getelementptr inbounds ([54 x i8], [54 x i8]* @__PRETTY_FUNCTION__._ZN7CSolver13set_var_valueEiiii, i32 0, i32 0)) #13
  unreachable
                                                  ; No predecessors!
  br label %15

; <label>:15                                      ; preds = %14, %12
  %16 = getelementptr inbounds %class.CSolver, %class.CSolver* %6, i32 0, i32 15
  %17 = getelementptr inbounds %struct.CSolverStats, %struct.CSolverStats* %16, i32 0, i32 12
  %18 = load i32, i32* %17, align 4
  %19 = add nsw i32 %18, 1
  store i32 %19, i32* %17, align 4
  %20 = call dereferenceable(4) i32* @_ZN7CSolver18num_free_variablesEv(%class.CSolver* %6)
  %21 = load i32, i32* %20, align 4
  %22 = add nsw i32 %21, -1
  store i32 %22, i32* %20, align 4
  %23 = bitcast %class.CSolver* %6 to %class.CDatabase*
  %24 = getelementptr inbounds %class.CDatabase, %class.CDatabase* %23, i32 0, i32 4
  %25 = load i32, i32* %2, align 4
  %26 = sext i32 %25 to i64
  %27 = call dereferenceable(80) %class.CVariable* @_ZNSt6vectorI9CVariableSaIS0_EEixEm(%"class.std::vector"* %24, i64 %26)
  store %class.CVariable* %27, %class.CVariable** %var, align 8
  %28 = load %class.CVariable*, %class.CVariable** %var, align 8
  %29 = call dereferenceable(2) i16* @_ZN9CVariable5valueEv(%class.CVariable* %28)
  %30 = load i16, i16* %29, align 2
  %31 = sext i16 %30 to i32
  %32 = icmp eq i32 %31, -1
  br i1 %32, label %33, label %34

; <label>:33                                      ; preds = %15
  br label %36

; <label>:34                                      ; preds = %15
  call void @__assert_fail(i8* getelementptr inbounds ([23 x i8], [23 x i8]* @.str.6, i32 0, i32 0), i8* getelementptr inbounds ([16 x i8], [16 x i8]* @.str.5, i32 0, i32 0), i32 180, i8* getelementptr inbounds ([54 x i8], [54 x i8]* @__PRETTY_FUNCTION__._ZN7CSolver13set_var_valueEiiii, i32 0, i32 0)) #13
  unreachable
                                                  ; No predecessors!
  br label %36

; <label>:36                                      ; preds = %35, %33
  %37 = load i32, i32* %5, align 4
  %38 = trunc i32 %37 to i16
  %39 = load %class.CVariable*, %class.CVariable** %var, align 8
  %40 = call dereferenceable(2) i16* @_ZN9CVariable6dlevelEv(%class.CVariable* %39)
  store i16 %38, i16* %40, align 2
  %41 = load i32, i32* %3, align 4
  %42 = trunc i32 %41 to i16
  %43 = load %class.CVariable*, %class.CVariable** %var, align 8
  %44 = call dereferenceable(2) i16* @_ZN9CVariable5valueEv(%class.CVariable* %43)
  store i16 %42, i16* %44, align 2
  %45 = load %class.CVariable*, %class.CVariable** %var, align 8
  %46 = load i32, i32* %4, align 4
  call void @_ZN9CVariable15set_antecedenceEi(%class.CVariable* %45, i32 %46)
  %47 = load %class.CVariable*, %class.CVariable** %var, align 8
  %48 = load i32, i32* %3, align 4
  %49 = call dereferenceable(24) %"class.std::vector.0"* @_ZN9CVariable6ht_ptrEi(%class.CVariable* %47, i32 %48)
  store %"class.std::vector.0"* %49, %"class.std::vector.0"** %ht_ptrs, align 8
  %50 = load i32, i32* %5, align 4
  %51 = call dereferenceable(4) i32* @_ZN7CSolver6dlevelEv(%class.CSolver* %6)
  %52 = load i32, i32* %51, align 4
  %53 = icmp eq i32 %50, %52
  br i1 %53, label %54, label %57

; <label>:54                                      ; preds = %36
  %55 = load i32, i32* %2, align 4
  %56 = load %"class.std::vector.0"*, %"class.std::vector.0"** %ht_ptrs, align 8
  call void @_ZN7CSolver29set_var_value_with_current_dlEiRSt6vectorIP15CLitPoolElementSaIS2_EE(%class.CSolver* %6, i32 %55, %"class.std::vector.0"* dereferenceable(24) %56)
  br label %60

; <label>:57                                      ; preds = %36
  %58 = load i32, i32* %2, align 4
  %59 = load %"class.std::vector.0"*, %"class.std::vector.0"** %ht_ptrs, align 8
  call void @_ZN7CSolver28set_var_value_not_current_dlEiRSt6vectorIP15CLitPoolElementSaIS2_EE(%class.CSolver* %6, i32 %58, %"class.std::vector.0"* dereferenceable(24) %59)
  br label %60

; <label>:60                                      ; preds = %57, %54
  ret void
}

; Function Attrs: noreturn nounwind
declare void @__assert_fail(i8*, i8*, i32, i8*) #7

; Function Attrs: nounwind uwtable
define linkonce_odr dereferenceable(4) i32* @_ZN7CSolver18num_free_variablesEv(%class.CSolver* %this) #4 comdat align 2 {
  %1 = alloca %class.CSolver*, align 8
  store %class.CSolver* %this, %class.CSolver** %1, align 8
  %2 = load %class.CSolver*, %class.CSolver** %1, align 8
  %3 = getelementptr inbounds %class.CSolver, %class.CSolver* %2, i32 0, i32 15
  %4 = getelementptr inbounds %struct.CSolverStats, %struct.CSolverStats* %3, i32 0, i32 13
  ret i32* %4
}

; Function Attrs: nounwind uwtable
define linkonce_odr dereferenceable(80) %class.CVariable* @_ZNSt6vectorI9CVariableSaIS0_EEixEm(%"class.std::vector"* %this, i64 %__n) #4 comdat align 2 {
  %1 = alloca %"class.std::vector"*, align 8
  %2 = alloca i64, align 8
  store %"class.std::vector"* %this, %"class.std::vector"** %1, align 8
  store i64 %__n, i64* %2, align 8
  %3 = load %"class.std::vector"*, %"class.std::vector"** %1, align 8
  %4 = bitcast %"class.std::vector"* %3 to %"struct.std::_Vector_base"*
  %5 = getelementptr inbounds %"struct.std::_Vector_base", %"struct.std::_Vector_base"* %4, i32 0, i32 0
  %6 = getelementptr inbounds %"struct.std::_Vector_base<CVariable, std::allocator<CVariable> >::_Vector_impl", %"struct.std::_Vector_base<CVariable, std::allocator<CVariable> >::_Vector_impl"* %5, i32 0, i32 0
  %7 = load %class.CVariable*, %class.CVariable** %6, align 8
  %8 = load i64, i64* %2, align 8
  %9 = getelementptr inbounds %class.CVariable, %class.CVariable* %7, i64 %8
  ret %class.CVariable* %9
}

; Function Attrs: nounwind uwtable
define linkonce_odr dereferenceable(2) i16* @_ZN9CVariable5valueEv(%class.CVariable* %this) #4 comdat align 2 {
  %1 = alloca %class.CVariable*, align 8
  store %class.CVariable* %this, %class.CVariable** %1, align 8
  %2 = load %class.CVariable*, %class.CVariable** %1, align 8
  %3 = getelementptr inbounds %class.CVariable, %class.CVariable* %2, i32 0, i32 1
  ret i16* %3
}

; Function Attrs: nounwind uwtable
define linkonce_odr dereferenceable(2) i16* @_ZN9CVariable6dlevelEv(%class.CVariable* %this) #4 comdat align 2 {
  %1 = alloca %class.CVariable*, align 8
  store %class.CVariable* %this, %class.CVariable** %1, align 8
  %2 = load %class.CVariable*, %class.CVariable** %1, align 8
  %3 = getelementptr inbounds %class.CVariable, %class.CVariable* %2, i32 0, i32 2
  ret i16* %3
}

; Function Attrs: nounwind uwtable
define linkonce_odr void @_ZN9CVariable15set_antecedenceEi(%class.CVariable* %this, i32 %ante) #4 comdat align 2 {
  %1 = alloca %class.CVariable*, align 8
  %2 = alloca i32, align 4
  store %class.CVariable* %this, %class.CVariable** %1, align 8
  store i32 %ante, i32* %2, align 4
  %3 = load %class.CVariable*, %class.CVariable** %1, align 8
  %4 = load i32, i32* %2, align 4
  %5 = bitcast %class.CVariable* %3 to i32*
  %6 = load i32, i32* %5, align 8
  %7 = and i32 %4, 536870911
  %8 = shl i32 %7, 3
  %9 = and i32 %6, 7
  %10 = or i32 %9, %8
  store i32 %10, i32* %5, align 8
  ret void
}

; Function Attrs: nounwind uwtable
define linkonce_odr dereferenceable(24) %"class.std::vector.0"* @_ZN9CVariable6ht_ptrEi(%class.CVariable* %this, i32 %i) #4 comdat align 2 {
  %1 = alloca %class.CVariable*, align 8
  %2 = alloca i32, align 4
  store %class.CVariable* %this, %class.CVariable** %1, align 8
  store i32 %i, i32* %2, align 4
  %3 = load %class.CVariable*, %class.CVariable** %1, align 8
  %4 = load i32, i32* %2, align 4
  %5 = sext i32 %4 to i64
  %6 = getelementptr inbounds %class.CVariable, %class.CVariable* %3, i32 0, i32 3
  %7 = getelementptr inbounds [2 x %"class.std::vector.0"], [2 x %"class.std::vector.0"]* %6, i64 0, i64 %5
  ret %"class.std::vector.0"* %7
}

; Function Attrs: uwtable
define void @_ZN7CSolver29set_var_value_with_current_dlEiRSt6vectorIP15CLitPoolElementSaIS2_EE(%class.CSolver* %this, i32 %v, %"class.std::vector.0"* dereferenceable(24) %ht_ptrs) #0 align 2 {
  %1 = alloca %class.CSolver*, align 8
  %2 = alloca i32, align 4
  %3 = alloca %"class.std::vector.0"*, align 8
  %cl_idx = alloca i32, align 4
  %ht_ptr = alloca %class.CLitPoolElement*, align 8
  %other_ht_ptr = alloca %class.CLitPoolElement*, align 8
  %ptr = alloca %class.CLitPoolElement*, align 8
  %dir = alloca i32, align 4
  %itr = alloca %"class.__gnu_cxx::__normal_iterator", align 8
  %4 = alloca %"class.__gnu_cxx::__normal_iterator", align 8
  %the_value = alloca i32, align 4
  %5 = alloca %class.CLitPoolElement, align 4
  %6 = alloca %class.CLitPoolElement, align 4
  %v1 = alloca i32, align 4
  %sign = alloca i32, align 4
  store %class.CSolver* %this, %class.CSolver** %1, align 8
  store i32 %v, i32* %2, align 4
  store %"class.std::vector.0"* %ht_ptrs, %"class.std::vector.0"** %3, align 8
  %7 = load %class.CSolver*, %class.CSolver** %1, align 8
  %8 = load %"class.std::vector.0"*, %"class.std::vector.0"** %3, align 8
  %9 = call %class.CLitPoolElement** @_ZNSt6vectorIP15CLitPoolElementSaIS1_EE5beginEv(%"class.std::vector.0"* %8)
  %10 = getelementptr inbounds %"class.__gnu_cxx::__normal_iterator", %"class.__gnu_cxx::__normal_iterator"* %itr, i32 0, i32 0
  store %class.CLitPoolElement** %9, %class.CLitPoolElement*** %10, align 8
  br label %11

; <label>:11                                      ; preds = %105, %0
  %12 = load %"class.std::vector.0"*, %"class.std::vector.0"** %3, align 8
  %13 = call %class.CLitPoolElement** @_ZNSt6vectorIP15CLitPoolElementSaIS1_EE3endEv(%"class.std::vector.0"* %12)
  %14 = getelementptr inbounds %"class.__gnu_cxx::__normal_iterator", %"class.__gnu_cxx::__normal_iterator"* %4, i32 0, i32 0
  store %class.CLitPoolElement** %13, %class.CLitPoolElement*** %14, align 8
  %15 = call zeroext i1 @_ZN9__gnu_cxxneIPP15CLitPoolElementSt6vectorIS2_SaIS2_EEEEbRKNS_17__normal_iteratorIT_T0_EESC_(%"class.__gnu_cxx::__normal_iterator"* dereferenceable(8) %itr, %"class.__gnu_cxx::__normal_iterator"* dereferenceable(8) %4)
  br i1 %15, label %16, label %107

; <label>:16                                      ; preds = %11
  %17 = call dereferenceable(8) %class.CLitPoolElement** @_ZNK9__gnu_cxx17__normal_iteratorIPP15CLitPoolElementSt6vectorIS2_SaIS2_EEEdeEv(%"class.__gnu_cxx::__normal_iterator"* %itr)
  %18 = load %class.CLitPoolElement*, %class.CLitPoolElement** %17, align 8
  store %class.CLitPoolElement* %18, %class.CLitPoolElement** %ht_ptr, align 8
  %19 = load %class.CLitPoolElement*, %class.CLitPoolElement** %ht_ptr, align 8
  %20 = call i32 @_ZN15CLitPoolElement9directionEv(%class.CLitPoolElement* %19)
  store i32 %20, i32* %dir, align 4
  %21 = load %class.CLitPoolElement*, %class.CLitPoolElement** %ht_ptr, align 8
  store %class.CLitPoolElement* %21, %class.CLitPoolElement** %ptr, align 8
  br label %22

; <label>:22                                      ; preds = %16, %44, %72, %83
  %23 = load i32, i32* %dir, align 4
  %24 = load %class.CLitPoolElement*, %class.CLitPoolElement** %ptr, align 8
  %25 = sext i32 %23 to i64
  %26 = getelementptr inbounds %class.CLitPoolElement, %class.CLitPoolElement* %24, i64 %25
  store %class.CLitPoolElement* %26, %class.CLitPoolElement** %ptr, align 8
  %27 = load %class.CLitPoolElement*, %class.CLitPoolElement** %ptr, align 8
  %28 = call dereferenceable(4) i32* @_ZN15CLitPoolElement3valEv(%class.CLitPoolElement* %27)
  %29 = load i32, i32* %28, align 4
  %30 = icmp sle i32 %29, 0
  br i1 %30, label %31, label %69

; <label>:31                                      ; preds = %22
  %32 = load i32, i32* %dir, align 4
  %33 = icmp eq i32 %32, 1
  br i1 %33, label %34, label %39

; <label>:34                                      ; preds = %31
  %35 = load %class.CLitPoolElement*, %class.CLitPoolElement** %ptr, align 8
  %36 = call dereferenceable(4) i32* @_ZN15CLitPoolElement3valEv(%class.CLitPoolElement* %35)
  %37 = load i32, i32* %36, align 4
  %38 = sub nsw i32 0, %37
  store i32 %38, i32* %cl_idx, align 4
  br label %39

; <label>:39                                      ; preds = %34, %31
  %40 = load i32, i32* %dir, align 4
  %41 = load %class.CLitPoolElement*, %class.CLitPoolElement** %ht_ptr, align 8
  %42 = call i32 @_ZN15CLitPoolElement9directionEv(%class.CLitPoolElement* %41)
  %43 = icmp eq i32 %40, %42
  br i1 %43, label %44, label %48

; <label>:44                                      ; preds = %39
  %45 = load %class.CLitPoolElement*, %class.CLitPoolElement** %ht_ptr, align 8
  store %class.CLitPoolElement* %45, %class.CLitPoolElement** %ptr, align 8
  %46 = load i32, i32* %dir, align 4
  %47 = sub nsw i32 0, %46
  store i32 %47, i32* %dir, align 4
  br label %22

; <label>:48                                      ; preds = %39
  %49 = bitcast %class.CSolver* %7 to %class.CDatabase*
  %50 = load %class.CLitPoolElement*, %class.CLitPoolElement** %other_ht_ptr, align 8
  %51 = bitcast %class.CLitPoolElement* %5 to i8*
  %52 = bitcast %class.CLitPoolElement* %50 to i8*
  call void @llvm.memcpy.p0i8.p0i8.i64(i8* %51, i8* %52, i64 4, i32 4, i1 false)
  %53 = getelementptr inbounds %class.CLitPoolElement, %class.CLitPoolElement* %5, i32 0, i32 0
  %54 = load i32, i32* %53, align 4
  %55 = call i32 @_ZN9CDatabase13literal_valueE15CLitPoolElement(%class.CDatabase* %49, i32 %54)
  store i32 %55, i32* %the_value, align 4
  %56 = load i32, i32* %the_value, align 4
  %57 = icmp eq i32 %56, 0
  br i1 %57, label %58, label %60

; <label>:58                                      ; preds = %48
  %59 = getelementptr inbounds %class.CSolver, %class.CSolver* %7, i32 0, i32 11
  call void @_ZNSt6vectorIiSaIiEE9push_backERKi(%"class.std::vector.18"* %59, i32* dereferenceable(4) %cl_idx)
  br label %68

; <label>:60                                      ; preds = %48
  %61 = load i32, i32* %the_value, align 4
  %62 = icmp ne i32 %61, 1
  br i1 %62, label %63, label %67

; <label>:63                                      ; preds = %60
  %64 = load %class.CLitPoolElement*, %class.CLitPoolElement** %other_ht_ptr, align 8
  %65 = call i32 @_ZN15CLitPoolElement5s_varEv(%class.CLitPoolElement* %64)
  %66 = load i32, i32* %cl_idx, align 4
  call void @_ZN7CSolver17queue_implicationEii(%class.CSolver* %7, i32 %65, i32 %66)
  br label %67

; <label>:67                                      ; preds = %63, %60
  br label %68

; <label>:68                                      ; preds = %67, %58
  br label %104

; <label>:69                                      ; preds = %22
  %70 = load %class.CLitPoolElement*, %class.CLitPoolElement** %ptr, align 8
  %71 = call zeroext i1 @_ZN15CLitPoolElement5is_htEv(%class.CLitPoolElement* %70)
  br i1 %71, label %72, label %74

; <label>:72                                      ; preds = %69
  %73 = load %class.CLitPoolElement*, %class.CLitPoolElement** %ptr, align 8
  store %class.CLitPoolElement* %73, %class.CLitPoolElement** %other_ht_ptr, align 8
  br label %22

; <label>:74                                      ; preds = %69
  %75 = bitcast %class.CSolver* %7 to %class.CDatabase*
  %76 = load %class.CLitPoolElement*, %class.CLitPoolElement** %ptr, align 8
  %77 = bitcast %class.CLitPoolElement* %6 to i8*
  %78 = bitcast %class.CLitPoolElement* %76 to i8*
  call void @llvm.memcpy.p0i8.p0i8.i64(i8* %77, i8* %78, i64 4, i32 4, i1 false)
  %79 = getelementptr inbounds %class.CLitPoolElement, %class.CLitPoolElement* %6, i32 0, i32 0
  %80 = load i32, i32* %79, align 4
  %81 = call i32 @_ZN9CDatabase13literal_valueE15CLitPoolElement(%class.CDatabase* %75, i32 %80)
  %82 = icmp eq i32 %81, 0
  br i1 %82, label %83, label %84

; <label>:83                                      ; preds = %74
  br label %22

; <label>:84                                      ; preds = %74
  %85 = load %class.CLitPoolElement*, %class.CLitPoolElement** %ptr, align 8
  %86 = call i32 @_ZN15CLitPoolElement9var_indexEv(%class.CLitPoolElement* %85)
  store i32 %86, i32* %v1, align 4
  %87 = load %class.CLitPoolElement*, %class.CLitPoolElement** %ptr, align 8
  %88 = call zeroext i1 @_ZN15CLitPoolElement8var_signEv(%class.CLitPoolElement* %87)
  %89 = zext i1 %88 to i32
  store i32 %89, i32* %sign, align 4
  %90 = bitcast %class.CSolver* %7 to %class.CDatabase*
  %91 = load i32, i32* %v1, align 4
  %92 = call dereferenceable(80) %class.CVariable* @_ZN9CDatabase8variableEi(%class.CDatabase* %90, i32 %91)
  %93 = load i32, i32* %sign, align 4
  %94 = call dereferenceable(24) %"class.std::vector.0"* @_ZN9CVariable6ht_ptrEi(%class.CVariable* %92, i32 %93)
  call void @_ZNSt6vectorIP15CLitPoolElementSaIS1_EE9push_backERKS1_(%"class.std::vector.0"* %94, %class.CLitPoolElement** dereferenceable(8) %ptr)
  %95 = load %class.CLitPoolElement*, %class.CLitPoolElement** %ht_ptr, align 8
  call void @_ZN15CLitPoolElement8unset_htEv(%class.CLitPoolElement* %95)
  %96 = load %class.CLitPoolElement*, %class.CLitPoolElement** %ptr, align 8
  %97 = load i32, i32* %dir, align 4
  call void @_ZN15CLitPoolElement6set_htEi(%class.CLitPoolElement* %96, i32 %97)
  %98 = load %"class.std::vector.0"*, %"class.std::vector.0"** %3, align 8
  %99 = call dereferenceable(8) %class.CLitPoolElement** @_ZNSt6vectorIP15CLitPoolElementSaIS1_EE4backEv(%"class.std::vector.0"* %98)
  %100 = load %class.CLitPoolElement*, %class.CLitPoolElement** %99, align 8
  %101 = call dereferenceable(8) %class.CLitPoolElement** @_ZNK9__gnu_cxx17__normal_iteratorIPP15CLitPoolElementSt6vectorIS2_SaIS2_EEEdeEv(%"class.__gnu_cxx::__normal_iterator"* %itr)
  store %class.CLitPoolElement* %100, %class.CLitPoolElement** %101, align 8
  %102 = load %"class.std::vector.0"*, %"class.std::vector.0"** %3, align 8
  call void @_ZNSt6vectorIP15CLitPoolElementSaIS1_EE8pop_backEv(%"class.std::vector.0"* %102)
  %103 = call dereferenceable(8) %"class.__gnu_cxx::__normal_iterator"* @_ZN9__gnu_cxx17__normal_iteratorIPP15CLitPoolElementSt6vectorIS2_SaIS2_EEEmmEv(%"class.__gnu_cxx::__normal_iterator"* %itr)
  br label %104

; <label>:104                                     ; preds = %84, %68
  br label %105

; <label>:105                                     ; preds = %104
  %106 = call dereferenceable(8) %"class.__gnu_cxx::__normal_iterator"* @_ZN9__gnu_cxx17__normal_iteratorIPP15CLitPoolElementSt6vectorIS2_SaIS2_EEEppEv(%"class.__gnu_cxx::__normal_iterator"* %itr)
  br label %11

; <label>:107                                     ; preds = %11
  ret void
}

; Function Attrs: uwtable
define void @_ZN7CSolver28set_var_value_not_current_dlEiRSt6vectorIP15CLitPoolElementSaIS2_EE(%class.CSolver* %this, i32 %v, %"class.std::vector.0"* dereferenceable(24) %ht_ptrs) #0 align 2 {
  %1 = alloca %class.CSolver*, align 8
  %2 = alloca i32, align 4
  %3 = alloca %"class.std::vector.0"*, align 8
  %cl_idx = alloca i32, align 4
  %ht_ptr = alloca %class.CLitPoolElement*, align 8
  %other_ht_ptr = alloca %class.CLitPoolElement*, align 8
  %ptr = alloca %class.CLitPoolElement*, align 8
  %max_ptr = alloca %class.CLitPoolElement*, align 8
  %dir = alloca i32, align 4
  %max_dl = alloca i32, align 4
  %itr = alloca %"class.__gnu_cxx::__normal_iterator", align 8
  %4 = alloca %"class.__gnu_cxx::__normal_iterator", align 8
  %v1 = alloca i32, align 4
  %sign = alloca i32, align 4
  %the_value = alloca i32, align 4
  %5 = alloca %class.CLitPoolElement, align 4
  %6 = alloca %class.CLitPoolElement, align 4
  %v11 = alloca i32, align 4
  %sign2 = alloca i32, align 4
  store %class.CSolver* %this, %class.CSolver** %1, align 8
  store i32 %v, i32* %2, align 4
  store %"class.std::vector.0"* %ht_ptrs, %"class.std::vector.0"** %3, align 8
  %7 = load %class.CSolver*, %class.CSolver** %1, align 8
  store %class.CLitPoolElement* null, %class.CLitPoolElement** %max_ptr, align 8
  %8 = load %"class.std::vector.0"*, %"class.std::vector.0"** %3, align 8
  %9 = call %class.CLitPoolElement** @_ZNSt6vectorIP15CLitPoolElementSaIS1_EE5beginEv(%"class.std::vector.0"* %8)
  %10 = getelementptr inbounds %"class.__gnu_cxx::__normal_iterator", %"class.__gnu_cxx::__normal_iterator"* %itr, i32 0, i32 0
  store %class.CLitPoolElement** %9, %class.CLitPoolElement*** %10, align 8
  br label %11

; <label>:11                                      ; preds = %154, %0
  %12 = load %"class.std::vector.0"*, %"class.std::vector.0"** %3, align 8
  %13 = call %class.CLitPoolElement** @_ZNSt6vectorIP15CLitPoolElementSaIS1_EE3endEv(%"class.std::vector.0"* %12)
  %14 = getelementptr inbounds %"class.__gnu_cxx::__normal_iterator", %"class.__gnu_cxx::__normal_iterator"* %4, i32 0, i32 0
  store %class.CLitPoolElement** %13, %class.CLitPoolElement*** %14, align 8
  %15 = call zeroext i1 @_ZN9__gnu_cxxneIPP15CLitPoolElementSt6vectorIS2_SaIS2_EEEEbRKNS_17__normal_iteratorIT_T0_EESC_(%"class.__gnu_cxx::__normal_iterator"* dereferenceable(8) %itr, %"class.__gnu_cxx::__normal_iterator"* dereferenceable(8) %4)
  br i1 %15, label %16, label %156

; <label>:16                                      ; preds = %11
  store i32 -1, i32* %max_dl, align 4
  %17 = call dereferenceable(8) %class.CLitPoolElement** @_ZNK9__gnu_cxx17__normal_iteratorIPP15CLitPoolElementSt6vectorIS2_SaIS2_EEEdeEv(%"class.__gnu_cxx::__normal_iterator"* %itr)
  %18 = load %class.CLitPoolElement*, %class.CLitPoolElement** %17, align 8
  store %class.CLitPoolElement* %18, %class.CLitPoolElement** %ht_ptr, align 8
  %19 = load %class.CLitPoolElement*, %class.CLitPoolElement** %ht_ptr, align 8
  %20 = call i32 @_ZN15CLitPoolElement9directionEv(%class.CLitPoolElement* %19)
  store i32 %20, i32* %dir, align 4
  %21 = load %class.CLitPoolElement*, %class.CLitPoolElement** %ht_ptr, align 8
  store %class.CLitPoolElement* %21, %class.CLitPoolElement** %ptr, align 8
  br label %22

; <label>:22                                      ; preds = %16, %44, %102, %132
  %23 = load i32, i32* %dir, align 4
  %24 = load %class.CLitPoolElement*, %class.CLitPoolElement** %ptr, align 8
  %25 = sext i32 %23 to i64
  %26 = getelementptr inbounds %class.CLitPoolElement, %class.CLitPoolElement* %24, i64 %25
  store %class.CLitPoolElement* %26, %class.CLitPoolElement** %ptr, align 8
  %27 = load %class.CLitPoolElement*, %class.CLitPoolElement** %ptr, align 8
  %28 = call dereferenceable(4) i32* @_ZN15CLitPoolElement3valEv(%class.CLitPoolElement* %27)
  %29 = load i32, i32* %28, align 4
  %30 = icmp sle i32 %29, 0
  br i1 %30, label %31, label %99

; <label>:31                                      ; preds = %22
  %32 = load i32, i32* %dir, align 4
  %33 = icmp eq i32 %32, 1
  br i1 %33, label %34, label %39

; <label>:34                                      ; preds = %31
  %35 = load %class.CLitPoolElement*, %class.CLitPoolElement** %ptr, align 8
  %36 = call dereferenceable(4) i32* @_ZN15CLitPoolElement3valEv(%class.CLitPoolElement* %35)
  %37 = load i32, i32* %36, align 4
  %38 = sub nsw i32 0, %37
  store i32 %38, i32* %cl_idx, align 4
  br label %39

; <label>:39                                      ; preds = %34, %31
  %40 = load i32, i32* %dir, align 4
  %41 = load %class.CLitPoolElement*, %class.CLitPoolElement** %ht_ptr, align 8
  %42 = call i32 @_ZN15CLitPoolElement9directionEv(%class.CLitPoolElement* %41)
  %43 = icmp eq i32 %40, %42
  br i1 %43, label %44, label %48

; <label>:44                                      ; preds = %39
  %45 = load %class.CLitPoolElement*, %class.CLitPoolElement** %ht_ptr, align 8
  store %class.CLitPoolElement* %45, %class.CLitPoolElement** %ptr, align 8
  %46 = load i32, i32* %dir, align 4
  %47 = sub nsw i32 0, %46
  store i32 %47, i32* %dir, align 4
  br label %22

; <label>:48                                      ; preds = %39
  %49 = bitcast %class.CSolver* %7 to %class.CDatabase*
  %50 = load %class.CLitPoolElement*, %class.CLitPoolElement** %ht_ptr, align 8
  %51 = call i32 @_ZN15CLitPoolElement9var_indexEv(%class.CLitPoolElement* %50)
  %52 = call dereferenceable(80) %class.CVariable* @_ZN9CDatabase8variableEi(%class.CDatabase* %49, i32 %51)
  %53 = call dereferenceable(2) i16* @_ZN9CVariable6dlevelEv(%class.CVariable* %52)
  %54 = load i16, i16* %53, align 2
  %55 = sext i16 %54 to i32
  %56 = load i32, i32* %max_dl, align 4
  %57 = icmp slt i32 %55, %56
  br i1 %57, label %58, label %78

; <label>:58                                      ; preds = %48
  %59 = load %class.CLitPoolElement*, %class.CLitPoolElement** %max_ptr, align 8
  %60 = call i32 @_ZN15CLitPoolElement9var_indexEv(%class.CLitPoolElement* %59)
  store i32 %60, i32* %v1, align 4
  %61 = load %class.CLitPoolElement*, %class.CLitPoolElement** %max_ptr, align 8
  %62 = call zeroext i1 @_ZN15CLitPoolElement8var_signEv(%class.CLitPoolElement* %61)
  %63 = zext i1 %62 to i32
  store i32 %63, i32* %sign, align 4
  %64 = bitcast %class.CSolver* %7 to %class.CDatabase*
  %65 = load i32, i32* %v1, align 4
  %66 = call dereferenceable(80) %class.CVariable* @_ZN9CDatabase8variableEi(%class.CDatabase* %64, i32 %65)
  %67 = load i32, i32* %sign, align 4
  %68 = call dereferenceable(24) %"class.std::vector.0"* @_ZN9CVariable6ht_ptrEi(%class.CVariable* %66, i32 %67)
  call void @_ZNSt6vectorIP15CLitPoolElementSaIS1_EE9push_backERKS1_(%"class.std::vector.0"* %68, %class.CLitPoolElement** dereferenceable(8) %max_ptr)
  %69 = load %class.CLitPoolElement*, %class.CLitPoolElement** %ht_ptr, align 8
  call void @_ZN15CLitPoolElement8unset_htEv(%class.CLitPoolElement* %69)
  %70 = load %class.CLitPoolElement*, %class.CLitPoolElement** %max_ptr, align 8
  %71 = load i32, i32* %dir, align 4
  call void @_ZN15CLitPoolElement6set_htEi(%class.CLitPoolElement* %70, i32 %71)
  %72 = load %"class.std::vector.0"*, %"class.std::vector.0"** %3, align 8
  %73 = call dereferenceable(8) %class.CLitPoolElement** @_ZNSt6vectorIP15CLitPoolElementSaIS1_EE4backEv(%"class.std::vector.0"* %72)
  %74 = load %class.CLitPoolElement*, %class.CLitPoolElement** %73, align 8
  %75 = call dereferenceable(8) %class.CLitPoolElement** @_ZNK9__gnu_cxx17__normal_iteratorIPP15CLitPoolElementSt6vectorIS2_SaIS2_EEEdeEv(%"class.__gnu_cxx::__normal_iterator"* %itr)
  store %class.CLitPoolElement* %74, %class.CLitPoolElement** %75, align 8
  %76 = load %"class.std::vector.0"*, %"class.std::vector.0"** %3, align 8
  call void @_ZNSt6vectorIP15CLitPoolElementSaIS1_EE8pop_backEv(%"class.std::vector.0"* %76)
  %77 = call dereferenceable(8) %"class.__gnu_cxx::__normal_iterator"* @_ZN9__gnu_cxx17__normal_iteratorIPP15CLitPoolElementSt6vectorIS2_SaIS2_EEEmmEv(%"class.__gnu_cxx::__normal_iterator"* %itr)
  br label %78

; <label>:78                                      ; preds = %58, %48
  %79 = bitcast %class.CSolver* %7 to %class.CDatabase*
  %80 = load %class.CLitPoolElement*, %class.CLitPoolElement** %other_ht_ptr, align 8
  %81 = bitcast %class.CLitPoolElement* %5 to i8*
  %82 = bitcast %class.CLitPoolElement* %80 to i8*
  call void @llvm.memcpy.p0i8.p0i8.i64(i8* %81, i8* %82, i64 4, i32 4, i1 false)
  %83 = getelementptr inbounds %class.CLitPoolElement, %class.CLitPoolElement* %5, i32 0, i32 0
  %84 = load i32, i32* %83, align 4
  %85 = call i32 @_ZN9CDatabase13literal_valueE15CLitPoolElement(%class.CDatabase* %79, i32 %84)
  store i32 %85, i32* %the_value, align 4
  %86 = load i32, i32* %the_value, align 4
  %87 = icmp eq i32 %86, 0
  br i1 %87, label %88, label %90

; <label>:88                                      ; preds = %78
  %89 = getelementptr inbounds %class.CSolver, %class.CSolver* %7, i32 0, i32 11
  call void @_ZNSt6vectorIiSaIiEE9push_backERKi(%"class.std::vector.18"* %89, i32* dereferenceable(4) %cl_idx)
  br label %98

; <label>:90                                      ; preds = %78
  %91 = load i32, i32* %the_value, align 4
  %92 = icmp ne i32 %91, 1
  br i1 %92, label %93, label %97

; <label>:93                                      ; preds = %90
  %94 = load %class.CLitPoolElement*, %class.CLitPoolElement** %other_ht_ptr, align 8
  %95 = call i32 @_ZN15CLitPoolElement5s_varEv(%class.CLitPoolElement* %94)
  %96 = load i32, i32* %cl_idx, align 4
  call void @_ZN7CSolver17queue_implicationEii(%class.CSolver* %7, i32 %95, i32 %96)
  br label %97

; <label>:97                                      ; preds = %93, %90
  br label %98

; <label>:98                                      ; preds = %97, %88
  br label %153

; <label>:99                                      ; preds = %22
  %100 = load %class.CLitPoolElement*, %class.CLitPoolElement** %ptr, align 8
  %101 = call zeroext i1 @_ZN15CLitPoolElement5is_htEv(%class.CLitPoolElement* %100)
  br i1 %101, label %102, label %104

; <label>:102                                     ; preds = %99
  %103 = load %class.CLitPoolElement*, %class.CLitPoolElement** %ptr, align 8
  store %class.CLitPoolElement* %103, %class.CLitPoolElement** %other_ht_ptr, align 8
  br label %22

; <label>:104                                     ; preds = %99
  %105 = bitcast %class.CSolver* %7 to %class.CDatabase*
  %106 = load %class.CLitPoolElement*, %class.CLitPoolElement** %ptr, align 8
  %107 = bitcast %class.CLitPoolElement* %6 to i8*
  %108 = bitcast %class.CLitPoolElement* %106 to i8*
  call void @llvm.memcpy.p0i8.p0i8.i64(i8* %107, i8* %108, i64 4, i32 4, i1 false)
  %109 = getelementptr inbounds %class.CLitPoolElement, %class.CLitPoolElement* %6, i32 0, i32 0
  %110 = load i32, i32* %109, align 4
  %111 = call i32 @_ZN9CDatabase13literal_valueE15CLitPoolElement(%class.CDatabase* %105, i32 %110)
  %112 = icmp eq i32 %111, 0
  br i1 %112, label %113, label %133

; <label>:113                                     ; preds = %104
  %114 = bitcast %class.CSolver* %7 to %class.CDatabase*
  %115 = load %class.CLitPoolElement*, %class.CLitPoolElement** %ptr, align 8
  %116 = call i32 @_ZN15CLitPoolElement9var_indexEv(%class.CLitPoolElement* %115)
  %117 = call dereferenceable(80) %class.CVariable* @_ZN9CDatabase8variableEi(%class.CDatabase* %114, i32 %116)
  %118 = call dereferenceable(2) i16* @_ZN9CVariable6dlevelEv(%class.CVariable* %117)
  %119 = load i16, i16* %118, align 2
  %120 = sext i16 %119 to i32
  %121 = load i32, i32* %max_dl, align 4
  %122 = icmp sgt i32 %120, %121
  br i1 %122, label %123, label %132

; <label>:123                                     ; preds = %113
  %124 = bitcast %class.CSolver* %7 to %class.CDatabase*
  %125 = load %class.CLitPoolElement*, %class.CLitPoolElement** %ptr, align 8
  %126 = call i32 @_ZN15CLitPoolElement9var_indexEv(%class.CLitPoolElement* %125)
  %127 = call dereferenceable(80) %class.CVariable* @_ZN9CDatabase8variableEi(%class.CDatabase* %124, i32 %126)
  %128 = call dereferenceable(2) i16* @_ZN9CVariable6dlevelEv(%class.CVariable* %127)
  %129 = load i16, i16* %128, align 2
  %130 = sext i16 %129 to i32
  store i32 %130, i32* %max_dl, align 4
  %131 = load %class.CLitPoolElement*, %class.CLitPoolElement** %ptr, align 8
  store %class.CLitPoolElement* %131, %class.CLitPoolElement** %max_ptr, align 8
  br label %132

; <label>:132                                     ; preds = %123, %113
  br label %22

; <label>:133                                     ; preds = %104
  %134 = load %class.CLitPoolElement*, %class.CLitPoolElement** %ptr, align 8
  %135 = call i32 @_ZN15CLitPoolElement9var_indexEv(%class.CLitPoolElement* %134)
  store i32 %135, i32* %v11, align 4
  %136 = load %class.CLitPoolElement*, %class.CLitPoolElement** %ptr, align 8
  %137 = call zeroext i1 @_ZN15CLitPoolElement8var_signEv(%class.CLitPoolElement* %136)
  %138 = zext i1 %137 to i32
  store i32 %138, i32* %sign2, align 4
  %139 = bitcast %class.CSolver* %7 to %class.CDatabase*
  %140 = load i32, i32* %v11, align 4
  %141 = call dereferenceable(80) %class.CVariable* @_ZN9CDatabase8variableEi(%class.CDatabase* %139, i32 %140)
  %142 = load i32, i32* %sign2, align 4
  %143 = call dereferenceable(24) %"class.std::vector.0"* @_ZN9CVariable6ht_ptrEi(%class.CVariable* %141, i32 %142)
  call void @_ZNSt6vectorIP15CLitPoolElementSaIS1_EE9push_backERKS1_(%"class.std::vector.0"* %143, %class.CLitPoolElement** dereferenceable(8) %ptr)
  %144 = load %class.CLitPoolElement*, %class.CLitPoolElement** %ht_ptr, align 8
  call void @_ZN15CLitPoolElement8unset_htEv(%class.CLitPoolElement* %144)
  %145 = load %class.CLitPoolElement*, %class.CLitPoolElement** %ptr, align 8
  %146 = load i32, i32* %dir, align 4
  call void @_ZN15CLitPoolElement6set_htEi(%class.CLitPoolElement* %145, i32 %146)
  %147 = load %"class.std::vector.0"*, %"class.std::vector.0"** %3, align 8
  %148 = call dereferenceable(8) %class.CLitPoolElement** @_ZNSt6vectorIP15CLitPoolElementSaIS1_EE4backEv(%"class.std::vector.0"* %147)
  %149 = load %class.CLitPoolElement*, %class.CLitPoolElement** %148, align 8
  %150 = call dereferenceable(8) %class.CLitPoolElement** @_ZNK9__gnu_cxx17__normal_iteratorIPP15CLitPoolElementSt6vectorIS2_SaIS2_EEEdeEv(%"class.__gnu_cxx::__normal_iterator"* %itr)
  store %class.CLitPoolElement* %149, %class.CLitPoolElement** %150, align 8
  %151 = load %"class.std::vector.0"*, %"class.std::vector.0"** %3, align 8
  call void @_ZNSt6vectorIP15CLitPoolElementSaIS1_EE8pop_backEv(%"class.std::vector.0"* %151)
  %152 = call dereferenceable(8) %"class.__gnu_cxx::__normal_iterator"* @_ZN9__gnu_cxx17__normal_iteratorIPP15CLitPoolElementSt6vectorIS2_SaIS2_EEEmmEv(%"class.__gnu_cxx::__normal_iterator"* %itr)
  br label %153

; <label>:153                                     ; preds = %133, %98
  br label %154

; <label>:154                                     ; preds = %153
  %155 = call dereferenceable(8) %"class.__gnu_cxx::__normal_iterator"* @_ZN9__gnu_cxx17__normal_iteratorIPP15CLitPoolElementSt6vectorIS2_SaIS2_EEEppEv(%"class.__gnu_cxx::__normal_iterator"* %itr)
  br label %11

; <label>:156                                     ; preds = %11
  ret void
}

; Function Attrs: uwtable
define linkonce_odr %class.CLitPoolElement** @_ZNSt6vectorIP15CLitPoolElementSaIS1_EE5beginEv(%"class.std::vector.0"* %this) #0 comdat align 2 {
  %1 = alloca %"class.__gnu_cxx::__normal_iterator", align 8
  %2 = alloca %"class.std::vector.0"*, align 8
  store %"class.std::vector.0"* %this, %"class.std::vector.0"** %2, align 8
  %3 = load %"class.std::vector.0"*, %"class.std::vector.0"** %2, align 8
  %4 = bitcast %"class.std::vector.0"* %3 to %"struct.std::_Vector_base.1"*
  %5 = getelementptr inbounds %"struct.std::_Vector_base.1", %"struct.std::_Vector_base.1"* %4, i32 0, i32 0
  %6 = getelementptr inbounds %"struct.std::_Vector_base<CLitPoolElement *, std::allocator<CLitPoolElement *> >::_Vector_impl", %"struct.std::_Vector_base<CLitPoolElement *, std::allocator<CLitPoolElement *> >::_Vector_impl"* %5, i32 0, i32 0
  call void @_ZN9__gnu_cxx17__normal_iteratorIPP15CLitPoolElementSt6vectorIS2_SaIS2_EEEC2ERKS3_(%"class.__gnu_cxx::__normal_iterator"* %1, %class.CLitPoolElement*** dereferenceable(8) %6)
  %7 = getelementptr inbounds %"class.__gnu_cxx::__normal_iterator", %"class.__gnu_cxx::__normal_iterator"* %1, i32 0, i32 0
  %8 = load %class.CLitPoolElement**, %class.CLitPoolElement*** %7, align 8
  ret %class.CLitPoolElement** %8
}

; Function Attrs: inlinehint uwtable
define linkonce_odr zeroext i1 @_ZN9__gnu_cxxneIPP15CLitPoolElementSt6vectorIS2_SaIS2_EEEEbRKNS_17__normal_iteratorIT_T0_EESC_(%"class.__gnu_cxx::__normal_iterator"* dereferenceable(8) %__lhs, %"class.__gnu_cxx::__normal_iterator"* dereferenceable(8) %__rhs) #5 comdat {
  %1 = alloca %"class.__gnu_cxx::__normal_iterator"*, align 8
  %2 = alloca %"class.__gnu_cxx::__normal_iterator"*, align 8
  store %"class.__gnu_cxx::__normal_iterator"* %__lhs, %"class.__gnu_cxx::__normal_iterator"** %1, align 8
  store %"class.__gnu_cxx::__normal_iterator"* %__rhs, %"class.__gnu_cxx::__normal_iterator"** %2, align 8
  %3 = load %"class.__gnu_cxx::__normal_iterator"*, %"class.__gnu_cxx::__normal_iterator"** %1, align 8
  %4 = call dereferenceable(8) %class.CLitPoolElement*** @_ZNK9__gnu_cxx17__normal_iteratorIPP15CLitPoolElementSt6vectorIS2_SaIS2_EEE4baseEv(%"class.__gnu_cxx::__normal_iterator"* %3)
  %5 = load %class.CLitPoolElement**, %class.CLitPoolElement*** %4, align 8
  %6 = load %"class.__gnu_cxx::__normal_iterator"*, %"class.__gnu_cxx::__normal_iterator"** %2, align 8
  %7 = call dereferenceable(8) %class.CLitPoolElement*** @_ZNK9__gnu_cxx17__normal_iteratorIPP15CLitPoolElementSt6vectorIS2_SaIS2_EEE4baseEv(%"class.__gnu_cxx::__normal_iterator"* %6)
  %8 = load %class.CLitPoolElement**, %class.CLitPoolElement*** %7, align 8
  %9 = icmp ne %class.CLitPoolElement** %5, %8
  ret i1 %9
}

; Function Attrs: uwtable
define linkonce_odr %class.CLitPoolElement** @_ZNSt6vectorIP15CLitPoolElementSaIS1_EE3endEv(%"class.std::vector.0"* %this) #0 comdat align 2 {
  %1 = alloca %"class.__gnu_cxx::__normal_iterator", align 8
  %2 = alloca %"class.std::vector.0"*, align 8
  store %"class.std::vector.0"* %this, %"class.std::vector.0"** %2, align 8
  %3 = load %"class.std::vector.0"*, %"class.std::vector.0"** %2, align 8
  %4 = bitcast %"class.std::vector.0"* %3 to %"struct.std::_Vector_base.1"*
  %5 = getelementptr inbounds %"struct.std::_Vector_base.1", %"struct.std::_Vector_base.1"* %4, i32 0, i32 0
  %6 = getelementptr inbounds %"struct.std::_Vector_base<CLitPoolElement *, std::allocator<CLitPoolElement *> >::_Vector_impl", %"struct.std::_Vector_base<CLitPoolElement *, std::allocator<CLitPoolElement *> >::_Vector_impl"* %5, i32 0, i32 1
  call void @_ZN9__gnu_cxx17__normal_iteratorIPP15CLitPoolElementSt6vectorIS2_SaIS2_EEEC2ERKS3_(%"class.__gnu_cxx::__normal_iterator"* %1, %class.CLitPoolElement*** dereferenceable(8) %6)
  %7 = getelementptr inbounds %"class.__gnu_cxx::__normal_iterator", %"class.__gnu_cxx::__normal_iterator"* %1, i32 0, i32 0
  %8 = load %class.CLitPoolElement**, %class.CLitPoolElement*** %7, align 8
  ret %class.CLitPoolElement** %8
}

; Function Attrs: nounwind uwtable
define linkonce_odr dereferenceable(8) %class.CLitPoolElement** @_ZNK9__gnu_cxx17__normal_iteratorIPP15CLitPoolElementSt6vectorIS2_SaIS2_EEEdeEv(%"class.__gnu_cxx::__normal_iterator"* %this) #4 comdat align 2 {
  %1 = alloca %"class.__gnu_cxx::__normal_iterator"*, align 8
  store %"class.__gnu_cxx::__normal_iterator"* %this, %"class.__gnu_cxx::__normal_iterator"** %1, align 8
  %2 = load %"class.__gnu_cxx::__normal_iterator"*, %"class.__gnu_cxx::__normal_iterator"** %1, align 8
  %3 = getelementptr inbounds %"class.__gnu_cxx::__normal_iterator", %"class.__gnu_cxx::__normal_iterator"* %2, i32 0, i32 0
  %4 = load %class.CLitPoolElement**, %class.CLitPoolElement*** %3, align 8
  ret %class.CLitPoolElement** %4
}

; Function Attrs: nounwind uwtable
define linkonce_odr i32 @_ZN15CLitPoolElement9directionEv(%class.CLitPoolElement* %this) #4 comdat align 2 {
  %1 = alloca %class.CLitPoolElement*, align 8
  store %class.CLitPoolElement* %this, %class.CLitPoolElement** %1, align 8
  %2 = load %class.CLitPoolElement*, %class.CLitPoolElement** %1, align 8
  %3 = getelementptr inbounds %class.CLitPoolElement, %class.CLitPoolElement* %2, i32 0, i32 0
  %4 = load i32, i32* %3, align 4
  %5 = and i32 %4, 3
  %6 = sub nsw i32 %5, 2
  ret i32 %6
}

; Function Attrs: nounwind uwtable
define linkonce_odr dereferenceable(4) i32* @_ZN15CLitPoolElement3valEv(%class.CLitPoolElement* %this) #4 comdat align 2 {
  %1 = alloca %class.CLitPoolElement*, align 8
  store %class.CLitPoolElement* %this, %class.CLitPoolElement** %1, align 8
  %2 = load %class.CLitPoolElement*, %class.CLitPoolElement** %1, align 8
  %3 = getelementptr inbounds %class.CLitPoolElement, %class.CLitPoolElement* %2, i32 0, i32 0
  ret i32* %3
}

; Function Attrs: uwtable
define linkonce_odr i32 @_ZN9CDatabase13literal_valueE15CLitPoolElement(%class.CDatabase* %this, i32 %l.coerce) #0 comdat align 2 {
  %l = alloca %class.CLitPoolElement, align 4
  %1 = alloca %class.CDatabase*, align 8
  %2 = getelementptr inbounds %class.CLitPoolElement, %class.CLitPoolElement* %l, i32 0, i32 0
  store i32 %l.coerce, i32* %2, align 4
  store %class.CDatabase* %this, %class.CDatabase** %1, align 8
  %3 = load %class.CDatabase*, %class.CDatabase** %1, align 8
  %4 = call i32 @_ZN15CLitPoolElement9var_indexEv(%class.CLitPoolElement* %l)
  %5 = call dereferenceable(80) %class.CVariable* @_ZN9CDatabase8variableEi(%class.CDatabase* %3, i32 %4)
  %6 = call dereferenceable(2) i16* @_ZN9CVariable5valueEv(%class.CVariable* %5)
  %7 = load i16, i16* %6, align 2
  %8 = sext i16 %7 to i32
  %9 = call zeroext i1 @_ZN15CLitPoolElement8var_signEv(%class.CLitPoolElement* %l)
  %10 = zext i1 %9 to i32
  %11 = xor i32 %8, %10
  ret i32 %11
}

; Function Attrs: argmemonly nounwind
declare void @llvm.memcpy.p0i8.p0i8.i64(i8* nocapture, i8* nocapture readonly, i64, i32, i1) #9

; Function Attrs: uwtable
define linkonce_odr void @_ZNSt6vectorIiSaIiEE9push_backERKi(%"class.std::vector.18"* %this, i32* dereferenceable(4) %__x) #0 comdat align 2 {
  %1 = alloca %"class.std::vector.18"*, align 8
  %2 = alloca i32*, align 8
  %3 = alloca %"class.__gnu_cxx::__normal_iterator.66", align 8
  store %"class.std::vector.18"* %this, %"class.std::vector.18"** %1, align 8
  store i32* %__x, i32** %2, align 8
  %4 = load %"class.std::vector.18"*, %"class.std::vector.18"** %1, align 8
  %5 = bitcast %"class.std::vector.18"* %4 to %"struct.std::_Vector_base.19"*
  %6 = getelementptr inbounds %"struct.std::_Vector_base.19", %"struct.std::_Vector_base.19"* %5, i32 0, i32 0
  %7 = getelementptr inbounds %"struct.std::_Vector_base<int, std::allocator<int> >::_Vector_impl", %"struct.std::_Vector_base<int, std::allocator<int> >::_Vector_impl"* %6, i32 0, i32 1
  %8 = load i32*, i32** %7, align 8
  %9 = bitcast %"class.std::vector.18"* %4 to %"struct.std::_Vector_base.19"*
  %10 = getelementptr inbounds %"struct.std::_Vector_base.19", %"struct.std::_Vector_base.19"* %9, i32 0, i32 0
  %11 = getelementptr inbounds %"struct.std::_Vector_base<int, std::allocator<int> >::_Vector_impl", %"struct.std::_Vector_base<int, std::allocator<int> >::_Vector_impl"* %10, i32 0, i32 2
  %12 = load i32*, i32** %11, align 8
  %13 = icmp ne i32* %8, %12
  br i1 %13, label %14, label %28

; <label>:14                                      ; preds = %0
  %15 = bitcast %"class.std::vector.18"* %4 to %"struct.std::_Vector_base.19"*
  %16 = getelementptr inbounds %"struct.std::_Vector_base.19", %"struct.std::_Vector_base.19"* %15, i32 0, i32 0
  %17 = bitcast %"struct.std::_Vector_base<int, std::allocator<int> >::_Vector_impl"* %16 to %"class.std::allocator.10"*
  %18 = bitcast %"class.std::vector.18"* %4 to %"struct.std::_Vector_base.19"*
  %19 = getelementptr inbounds %"struct.std::_Vector_base.19", %"struct.std::_Vector_base.19"* %18, i32 0, i32 0
  %20 = getelementptr inbounds %"struct.std::_Vector_base<int, std::allocator<int> >::_Vector_impl", %"struct.std::_Vector_base<int, std::allocator<int> >::_Vector_impl"* %19, i32 0, i32 1
  %21 = load i32*, i32** %20, align 8
  %22 = load i32*, i32** %2, align 8
  call void @_ZN9__gnu_cxx14__alloc_traitsISaIiEE9constructIiEEvRS1_PiRKT_(%"class.std::allocator.10"* dereferenceable(1) %17, i32* %21, i32* dereferenceable(4) %22)
  %23 = bitcast %"class.std::vector.18"* %4 to %"struct.std::_Vector_base.19"*
  %24 = getelementptr inbounds %"struct.std::_Vector_base.19", %"struct.std::_Vector_base.19"* %23, i32 0, i32 0
  %25 = getelementptr inbounds %"struct.std::_Vector_base<int, std::allocator<int> >::_Vector_impl", %"struct.std::_Vector_base<int, std::allocator<int> >::_Vector_impl"* %24, i32 0, i32 1
  %26 = load i32*, i32** %25, align 8
  %27 = getelementptr inbounds i32, i32* %26, i32 1
  store i32* %27, i32** %25, align 8
  br label %34

; <label>:28                                      ; preds = %0
  %29 = call i32* @_ZNSt6vectorIiSaIiEE3endEv(%"class.std::vector.18"* %4)
  %30 = getelementptr inbounds %"class.__gnu_cxx::__normal_iterator.66", %"class.__gnu_cxx::__normal_iterator.66"* %3, i32 0, i32 0
  store i32* %29, i32** %30, align 8
  %31 = load i32*, i32** %2, align 8
  %32 = getelementptr inbounds %"class.__gnu_cxx::__normal_iterator.66", %"class.__gnu_cxx::__normal_iterator.66"* %3, i32 0, i32 0
  %33 = load i32*, i32** %32, align 8
  call void @_ZNSt6vectorIiSaIiEE13_M_insert_auxEN9__gnu_cxx17__normal_iteratorIPiS1_EERKi(%"class.std::vector.18"* %4, i32* %33, i32* dereferenceable(4) %31)
  br label %34

; <label>:34                                      ; preds = %28, %14
  ret void
}

; Function Attrs: uwtable
define linkonce_odr void @_ZN7CSolver17queue_implicationEii(%class.CSolver* %this, i32 %lit, i32 %ante_clause) #0 comdat align 2 {
  %1 = alloca %class.CSolver*, align 8
  %2 = alloca i32, align 4
  %3 = alloca i32, align 4
  %4 = alloca %"struct.std::pair", align 4
  store %class.CSolver* %this, %class.CSolver** %1, align 8
  store i32 %lit, i32* %2, align 4
  store i32 %ante_clause, i32* %3, align 4
  %5 = load %class.CSolver*, %class.CSolver** %1, align 8
  %6 = call dereferenceable(272) %"class.std::basic_ostream"* @_ZStlsISt11char_traitsIcEERSt13basic_ostreamIcT_ES5_PKc(%"class.std::basic_ostream"* dereferenceable(272) @_ZSt4cout, i8* getelementptr inbounds ([16 x i8], [16 x i8]* @.str.42, i32 0, i32 0))
  %7 = load i32, i32* %2, align 4
  %8 = and i32 %7, 1
  %9 = icmp ne i32 %8, 0
  br i1 %9, label %10, label %11

; <label>:10                                      ; preds = %0
  br label %12

; <label>:11                                      ; preds = %0
  br label %12

; <label>:12                                      ; preds = %11, %10
  %13 = phi [3 x i8]* [ @.str.43, %10 ], [ @.str.44, %11 ]
  %14 = getelementptr inbounds [3 x i8], [3 x i8]* %13, i32 0, i32 0
  %15 = call dereferenceable(272) %"class.std::basic_ostream"* @_ZStlsISt11char_traitsIcEERSt13basic_ostreamIcT_ES5_PKc(%"class.std::basic_ostream"* dereferenceable(272) %6, i8* %14)
  %16 = load i32, i32* %2, align 4
  %17 = ashr i32 %16, 1
  %18 = call dereferenceable(272) %"class.std::basic_ostream"* @_ZNSolsEi(%"class.std::basic_ostream"* %15, i32 %17)
  %19 = call dereferenceable(272) %"class.std::basic_ostream"* @_ZStlsISt11char_traitsIcEERSt13basic_ostreamIcT_ES5_PKc(%"class.std::basic_ostream"* dereferenceable(272) @_ZSt4cout, i8* getelementptr inbounds ([14 x i8], [14 x i8]* @.str.45, i32 0, i32 0))
  %20 = load i32, i32* %3, align 4
  %21 = call dereferenceable(272) %"class.std::basic_ostream"* @_ZNSolsEi(%"class.std::basic_ostream"* %19, i32 %20)
  %22 = call dereferenceable(272) %"class.std::basic_ostream"* @_ZNSolsEPFRSoS_E(%"class.std::basic_ostream"* %21, %"class.std::basic_ostream"* (%"class.std::basic_ostream"*)* @_ZSt4endlIcSt11char_traitsIcEERSt13basic_ostreamIT_T0_ES6_)
  %23 = getelementptr inbounds %class.CSolver, %class.CSolver* %5, i32 0, i32 4
  call void @_ZNSt4pairIiiEC2ERKiS2_(%"struct.std::pair"* %4, i32* dereferenceable(4) %2, i32* dereferenceable(4) %3)
  call void @_ZNSt5queueISt4pairIiiESt5dequeIS1_SaIS1_EEE4pushERKS1_(%"class.std::queue.20"* %23, %"struct.std::pair"* dereferenceable(8) %4)
  ret void
}

; Function Attrs: nounwind uwtable
define linkonce_odr i32 @_ZN15CLitPoolElement5s_varEv(%class.CLitPoolElement* %this) #4 comdat align 2 {
  %1 = alloca %class.CLitPoolElement*, align 8
  store %class.CLitPoolElement* %this, %class.CLitPoolElement** %1, align 8
  %2 = load %class.CLitPoolElement*, %class.CLitPoolElement** %1, align 8
  %3 = getelementptr inbounds %class.CLitPoolElement, %class.CLitPoolElement* %2, i32 0, i32 0
  %4 = load i32, i32* %3, align 4
  %5 = ashr i32 %4, 2
  ret i32 %5
}

; Function Attrs: nounwind uwtable
define linkonce_odr zeroext i1 @_ZN15CLitPoolElement5is_htEv(%class.CLitPoolElement* %this) #4 comdat align 2 {
  %1 = alloca %class.CLitPoolElement*, align 8
  store %class.CLitPoolElement* %this, %class.CLitPoolElement** %1, align 8
  %2 = load %class.CLitPoolElement*, %class.CLitPoolElement** %1, align 8
  %3 = getelementptr inbounds %class.CLitPoolElement, %class.CLitPoolElement* %2, i32 0, i32 0
  %4 = load i32, i32* %3, align 4
  %5 = and i32 %4, 3
  %6 = icmp ne i32 %5, 0
  ret i1 %6
}

; Function Attrs: nounwind uwtable
define linkonce_odr i32 @_ZN15CLitPoolElement9var_indexEv(%class.CLitPoolElement* %this) #4 comdat align 2 {
  %1 = alloca %class.CLitPoolElement*, align 8
  store %class.CLitPoolElement* %this, %class.CLitPoolElement** %1, align 8
  %2 = load %class.CLitPoolElement*, %class.CLitPoolElement** %1, align 8
  %3 = getelementptr inbounds %class.CLitPoolElement, %class.CLitPoolElement* %2, i32 0, i32 0
  %4 = load i32, i32* %3, align 4
  %5 = ashr i32 %4, 3
  ret i32 %5
}

; Function Attrs: nounwind uwtable
define linkonce_odr zeroext i1 @_ZN15CLitPoolElement8var_signEv(%class.CLitPoolElement* %this) #4 comdat align 2 {
  %1 = alloca %class.CLitPoolElement*, align 8
  store %class.CLitPoolElement* %this, %class.CLitPoolElement** %1, align 8
  %2 = load %class.CLitPoolElement*, %class.CLitPoolElement** %1, align 8
  %3 = getelementptr inbounds %class.CLitPoolElement, %class.CLitPoolElement* %2, i32 0, i32 0
  %4 = load i32, i32* %3, align 4
  %5 = ashr i32 %4, 2
  %6 = and i32 %5, 1
  %7 = icmp ne i32 %6, 0
  ret i1 %7
}

; Function Attrs: uwtable
define linkonce_odr dereferenceable(80) %class.CVariable* @_ZN9CDatabase8variableEi(%class.CDatabase* %this, i32 %idx) #0 comdat align 2 {
  %1 = alloca %class.CDatabase*, align 8
  %2 = alloca i32, align 4
  store %class.CDatabase* %this, %class.CDatabase** %1, align 8
  store i32 %idx, i32* %2, align 4
  %3 = load %class.CDatabase*, %class.CDatabase** %1, align 8
  %4 = getelementptr inbounds %class.CDatabase, %class.CDatabase* %3, i32 0, i32 4
  %5 = load i32, i32* %2, align 4
  %6 = sext i32 %5 to i64
  %7 = call dereferenceable(80) %class.CVariable* @_ZNSt6vectorI9CVariableSaIS0_EEixEm(%"class.std::vector"* %4, i64 %6)
  ret %class.CVariable* %7
}

; Function Attrs: uwtable
define linkonce_odr void @_ZNSt6vectorIP15CLitPoolElementSaIS1_EE9push_backERKS1_(%"class.std::vector.0"* %this, %class.CLitPoolElement** dereferenceable(8) %__x) #0 comdat align 2 {
  %1 = alloca %"class.std::vector.0"*, align 8
  %2 = alloca %class.CLitPoolElement**, align 8
  %3 = alloca %"class.__gnu_cxx::__normal_iterator", align 8
  store %"class.std::vector.0"* %this, %"class.std::vector.0"** %1, align 8
  store %class.CLitPoolElement** %__x, %class.CLitPoolElement*** %2, align 8
  %4 = load %"class.std::vector.0"*, %"class.std::vector.0"** %1, align 8
  %5 = bitcast %"class.std::vector.0"* %4 to %"struct.std::_Vector_base.1"*
  %6 = getelementptr inbounds %"struct.std::_Vector_base.1", %"struct.std::_Vector_base.1"* %5, i32 0, i32 0
  %7 = getelementptr inbounds %"struct.std::_Vector_base<CLitPoolElement *, std::allocator<CLitPoolElement *> >::_Vector_impl", %"struct.std::_Vector_base<CLitPoolElement *, std::allocator<CLitPoolElement *> >::_Vector_impl"* %6, i32 0, i32 1
  %8 = load %class.CLitPoolElement**, %class.CLitPoolElement*** %7, align 8
  %9 = bitcast %"class.std::vector.0"* %4 to %"struct.std::_Vector_base.1"*
  %10 = getelementptr inbounds %"struct.std::_Vector_base.1", %"struct.std::_Vector_base.1"* %9, i32 0, i32 0
  %11 = getelementptr inbounds %"struct.std::_Vector_base<CLitPoolElement *, std::allocator<CLitPoolElement *> >::_Vector_impl", %"struct.std::_Vector_base<CLitPoolElement *, std::allocator<CLitPoolElement *> >::_Vector_impl"* %10, i32 0, i32 2
  %12 = load %class.CLitPoolElement**, %class.CLitPoolElement*** %11, align 8
  %13 = icmp ne %class.CLitPoolElement** %8, %12
  br i1 %13, label %14, label %28

; <label>:14                                      ; preds = %0
  %15 = bitcast %"class.std::vector.0"* %4 to %"struct.std::_Vector_base.1"*
  %16 = getelementptr inbounds %"struct.std::_Vector_base.1", %"struct.std::_Vector_base.1"* %15, i32 0, i32 0
  %17 = bitcast %"struct.std::_Vector_base<CLitPoolElement *, std::allocator<CLitPoolElement *> >::_Vector_impl"* %16 to %"class.std::allocator.2"*
  %18 = bitcast %"class.std::vector.0"* %4 to %"struct.std::_Vector_base.1"*
  %19 = getelementptr inbounds %"struct.std::_Vector_base.1", %"struct.std::_Vector_base.1"* %18, i32 0, i32 0
  %20 = getelementptr inbounds %"struct.std::_Vector_base<CLitPoolElement *, std::allocator<CLitPoolElement *> >::_Vector_impl", %"struct.std::_Vector_base<CLitPoolElement *, std::allocator<CLitPoolElement *> >::_Vector_impl"* %19, i32 0, i32 1
